LX51 LINKER/LOCATER V4.66.30.0                                                          04/26/2018  14:22:13  PAGE 1


LX51 LINKER/LOCATER V4.66.30.0, INVOKED BY:
C:\SILICONLABS\SIMPLICITYSTUDIO\V4\DEVELOPER\TOOLCHAINS\KEIL_8051\9.53\BIN\LX51.EXE ./src/F99x_SMBus_Master.OBJ, ./src/I
>> nitDevice.OBJ, ./src/Interrupts.OBJ, ./src/SILABS_STARTUP.OBJ TO F99X-98X_SMBUS_MASTER.OMF.CRBUILD REMOVEUNUSED PRINT
>>  (.\F99x-98x_SMBus_Master.m51) PAGEWIDTH (120) PAGELENGTH (65) CLASSES (ECODE (C:0X0-C:0X1FFE), HCONST (C:0X0-C:0X1FF
>> E), XDATA (X:0X0-X:0XFF), HDATA (X:0X0-X:0XFF))


CPU MODE:     8051 MODE
MEMORY MODEL: SMALL WITH FLOATING POINT ARITHMETIC


INPUT MODULES INCLUDED:
  ./src/F99x_SMBus_Master.OBJ (F99X_SMBUS_MASTER)
         COMMENT TYPE 0: C51 V9.53.0.0
  ./src/InitDevice.OBJ (INITDEVICE)
         COMMENT TYPE 0: C51 V9.53.0.0
  ./src/Interrupts.OBJ (INTERRUPTS)
         COMMENT TYPE 0: C51 V9.53.0.0
  ./src/SILABS_STARTUP.OBJ (?C_STARTUP)
         COMMENT TYPE 0: AX51 V3.12.0.0
  C:\SILICONLABS\SIMPLICITYSTUDIO\V4\DEVELOPER\TOOLCHAINS\KEIL_8051\9.53\LIB\C51FPS.LIB (?C?FPADD)
         COMMENT TYPE 1: A51 / ASM51 Assembler
  C:\SILICONLABS\SIMPLICITYSTUDIO\V4\DEVELOPER\TOOLCHAINS\KEIL_8051\9.53\LIB\C51FPS.LIB (?C?FPMUL)
         COMMENT TYPE 1: A51 / ASM51 Assembler
  C:\SILICONLABS\SIMPLICITYSTUDIO\V4\DEVELOPER\TOOLCHAINS\KEIL_8051\9.53\LIB\C51FPS.LIB (?C?FPDIV)
         COMMENT TYPE 1: A51 / ASM51 Assembler
  C:\SILICONLABS\SIMPLICITYSTUDIO\V4\DEVELOPER\TOOLCHAINS\KEIL_8051\9.53\LIB\C51FPS.LIB (?C?FCAST)
         COMMENT TYPE 1: A51 / ASM51 Assembler
  C:\SILICONLABS\SIMPLICITYSTUDIO\V4\DEVELOPER\TOOLCHAINS\KEIL_8051\9.53\LIB\C51FPS.LIB (?C?CASTF)
         COMMENT TYPE 1: A51 / ASM51 Assembler
  C:\SILICONLABS\SIMPLICITYSTUDIO\V4\DEVELOPER\TOOLCHAINS\KEIL_8051\9.53\LIB\C51FPS.LIB (?C?FPGETOPN)
         COMMENT TYPE 1: A51 / ASM51 Assembler
  C:\SILICONLABS\SIMPLICITYSTUDIO\V4\DEVELOPER\TOOLCHAINS\KEIL_8051\9.53\LIB\C51S.LIB (?C_INIT)
         COMMENT TYPE 1: A51 / ASM51 Assembler
  C:\SILICONLABS\SIMPLICITYSTUDIO\V4\DEVELOPER\TOOLCHAINS\KEIL_8051\9.53\LIB\C51S.LIB (?C?CLDPTR)
         COMMENT TYPE 1: A51 / ASM51 Assembler
  C:\SILICONLABS\SIMPLICITYSTUDIO\V4\DEVELOPER\TOOLCHAINS\KEIL_8051\9.53\LIB\C51S.LIB (?C?CSTPTR)
         COMMENT TYPE 1: A51 / ASM51 Assembler
  C:\SILICONLABS\SIMPLICITYSTUDIO\V4\DEVELOPER\TOOLCHAINS\KEIL_8051\9.53\LIB\C51S.LIB (?C?IMUL)
         COMMENT TYPE 1: A51 / ASM51 Assembler
  C:\SILICONLABS\SIMPLICITYSTUDIO\V4\DEVELOPER\TOOLCHAINS\KEIL_8051\9.53\LIB\C51S.LIB (?C?LMUL)
         COMMENT TYPE 1: A51 / ASM51 Assembler
  C:\SILICONLABS\SIMPLICITYSTUDIO\V4\DEVELOPER\TOOLCHAINS\KEIL_8051\9.53\LIB\C51S.LIB (?C?ULDIV)
         COMMENT TYPE 1: A51 / ASM51 Assembler
  C:\SILICONLABS\SIMPLICITYSTUDIO\V4\DEVELOPER\TOOLCHAINS\KEIL_8051\9.53\LIB\C51S.LIB (?C?SLDIV)
         COMMENT TYPE 1: A51 / ASM51 Assembler
  C:\SILICONLABS\SIMPLICITYSTUDIO\V4\DEVELOPER\TOOLCHAINS\KEIL_8051\9.53\LIB\C51S.LIB (?C?LNEG)
         COMMENT TYPE 1: A51 / ASM51 Assembler
  C:\SILICONLABS\SIMPLICITYSTUDIO\V4\DEVELOPER\TOOLCHAINS\KEIL_8051\9.53\LIB\C51S.LIB (?C?SLCMP)
         COMMENT TYPE 1: A51 / ASM51 Assembler
  C:\SILICONLABS\SIMPLICITYSTUDIO\V4\DEVELOPER\TOOLCHAINS\KEIL_8051\9.53\LIB\C51S.LIB (?C?ULCMP)
         COMMENT TYPE 1: A51 / ASM51 Assembler
  C:\SILICONLABS\SIMPLICITYSTUDIO\V4\DEVELOPER\TOOLCHAINS\KEIL_8051\9.53\LIB\C51S.LIB (?C?SLSHR)
         COMMENT TYPE 1: A51 / ASM51 Assembler
  C:\SILICONLABS\SIMPLICITYSTUDIO\V4\DEVELOPER\TOOLCHAINS\KEIL_8051\9.53\LIB\C51S.LIB (?C?LSHL)
         COMMENT TYPE 1: A51 / ASM51 Assembler


ACTIVE MEMORY CLASSES OF MODULE:  F99X-98X_SMBUS_MASTER.OMF.CRBUILD (F99X_SMBUS_MASTER)

BASE        START       END         USED      MEMORY CLASS
==========================================================
C:000000H   C:000000H   C:001FFEH             ECODE
LX51 LINKER/LOCATER V4.66.30.0                                                        04/26/2018  14:22:13  PAGE 2


B00:0000H   C:000000H   C:001FFEH             HCONST
X:000000H   X:000000H   X:0000FFH   000001H   XDATA
X:000000H   X:000000H   X:0000FFH             HDATA
C:000000H   C:000000H   C:00FFFFH   0012B5H   CODE
I:000000H   I:000000H   I:00007FH   00005FH   DATA
I:000020H.0 I:000020H.0 I:00002FH.7 000000H.5 BIT
I:000000H   I:000000H   I:0000FFH   000001H   IDATA


MEMORY MAP OF MODULE:  F99X-98X_SMBUS_MASTER.OMF.CRBUILD (F99X_SMBUS_MASTER)


START     STOP      LENGTH    ALIGN  RELOC    MEMORY CLASS   SEGMENT NAME
=========================================================================

* * * * * * * * * * *   D A T A   M E M O R Y   * * * * * * * * * * * * *
000000H   000007H   000008H   ---    AT..     DATA           "REG BANK 0"
000008H   000008H   000001H   BYTE   UNIT     DATA           ?DT?INTERRUPTS
000009H.0 00001FH.7 000017H.0 ---    ---      **GAP**
000020H.0 000020H.3 000000H.4 BIT    UNIT     BIT            ?BI?F99X_SMBUS_MASTER
000020H.4 000020H.4 000000H.1 BIT    UNIT     BIT            _BIT_GROUP_
000020H.5 000020H   000000H.3 ---    ---      **GAP**
000021H   00004EH   00002EH   BYTE   UNIT     DATA           ?DT?F99X_SMBUS_MASTER
00004FH   000076H   000028H   BYTE   UNIT     DATA           _DATA_GROUP_
000077H   000077H   000001H   BYTE   UNIT     IDATA          ?STACK

* * * * * * * * * * *   C O D E   M E M O R Y   * * * * * * * * * * * * *
000000H   000002H   000003H   ---    OFFS..   CODE           ?CO?SILABS_STARTUP?3
000003H   000024H   000022H   BYTE   UNIT     CODE           ?CO?F99X_SMBUS_MASTER
000025H   000028H   000004H   BYTE   UNIT     CODE           ?PR?VREG_0_ENTER_DEFAULTMODE_FROM_RESET?INITDEVICE
000029H   000029H   000001H   BYTE   UNIT     CODE           ?PR?SILABS_STARTUP?F99X_SMBUS_MASTER
00002AH   00002AH   000001H   ---    ---      **GAP**
00002BH   00002DH   000003H   BYTE   OFFS..   CODE           ?F99X_SMBUS_MASTER?0002B
00002EH   00003AH   00000DH   BYTE   UNIT     CODE           ?PR?UART_INIT?F99X_SMBUS_MASTER
00003BH   00003DH   000003H   BYTE   OFFS..   CODE           ?INTERRUPTS?0003B
00003EH   00005EH   000021H   BYTE   UNIT     CODE           ?PR?_SMB_READ_REG?F99X_SMBUS_MASTER
00005FH   00006EH   000010H   BYTE   UNIT     CODE           ?C_INITSEG
00006FH   000072H   000004H   BYTE   UNIT     CODE           ?PR?HFOSC_0_ENTER_DEFAULTMODE_FROM_RESET?INITDEVICE
000073H   000075H   000003H   BYTE   OFFS..   CODE           ?INTERRUPTS?00073
000076H   000588H   000513H   BYTE   UNIT     CODE           ?C?LIB_CODE
000589H   000834H   0002ACH   BYTE   UNIT     CODE           ?PR?GETGAS?F99X_SMBUS_MASTER
000835H   000A77H   000243H   BYTE   UNIT     CODE           ?PR?GETHUM?F99X_SMBUS_MASTER
000A78H   000C12H   00019BH   BYTE   UNIT     CODE           ?PR?GETHEAT?F99X_SMBUS_MASTER
000C13H   000D4DH   00013BH   BYTE   UNIT     CODE           ?PR?GETTEMP?F99X_SMBUS_MASTER
000D4EH   000E63H   000116H   BYTE   UNIT     CODE           ?PR?SMBUS0_ISR?INTERRUPTS
000E64H   000F54H   0000F1H   BYTE   UNIT     CODE           ?PR?MAIN?F99X_SMBUS_MASTER
000F55H   00101EH   0000CAH   BYTE   UNIT     CODE           ?PR?_PRINT?F99X_SMBUS_MASTER
00101FH   0010ADH   00008FH   BYTE   UNIT     CODE           ?C_C51STARTUP
0010AEH   001127H   00007AH   BYTE   UNIT     CODE           ?PR?TIMER2_ISR?F99X_SMBUS_MASTER
001128H   001182H   00005BH   BYTE   UNIT     CODE           ?PR?READ_CO2?F99X_SMBUS_MASTER
001183H   0011C6H   000044H   BYTE   UNIT     CODE           ?C?LDIV
0011C7H   0011E1H   00001BH   BYTE   UNIT     CODE           ?PR?_SMB_WRITE_REG?F99X_SMBUS_MASTER
0011E2H   0011FAH   000019H   BYTE   UNIT     CODE           ?PR?TIMER16_3_ENTER_MODE2_FROM_DEFAULTMODE?INITDEVICE
0011FBH   001213H   000019H   BYTE   UNIT     CODE           ?PR?TIMER16_2_ENTER_DEFAULTMODE_FROM_RESET?INITDEVICE
001214H   001228H   000015H   BYTE   UNIT     CODE           ?PR?ENTER_DEFAULTMODE_FROM_RESET?INITDEVICE
001229H   00123DH   000015H   BYTE   UNIT     CODE           ?PR?ENTER_MODE2_FROM_DEFAULTMODE?INITDEVICE
00123EH   00124BH   00000EH   BYTE   UNIT     CODE           ?PR?TIMER3_ISR?INTERRUPTS
00124CH   001258H   00000DH   BYTE   UNIT     CODE           ?PR?SMB_READ?F99X_SMBUS_MASTER
001259H   001265H   00000DH   BYTE   UNIT     CODE           ?PR?TIMER_SETUP_0_ENTER_MODE2_FROM_DEFAULTMODE?INITDEVICE
001266H   001270H   00000BH   BYTE   UNIT     CODE           ?PR?TIMER00_0_ENTER_MODE2_FROM_DEFAULTMODE?INITDEVICE
001271H   00127BH   00000BH   BYTE   UNIT     CODE           ?PR?TIMER01_0_ENTER_DEFAULTMODE_FROM_RESET?INITDEVICE
00127CH   001285H   00000AH   BYTE   UNIT     CODE           ?PR?SMB_WRITE?F99X_SMBUS_MASTER
LX51 LINKER/LOCATER V4.66.30.0                                                        04/26/2018  14:22:13  PAGE 3


001286H   00128DH   000008H   BYTE   UNIT     CODE           ?PR?_UART_SEND?F99X_SMBUS_MASTER
00128EH   001294H   000007H   BYTE   UNIT     CODE           ?PR?PCA_0_ENTER_DEFAULTMODE_FROM_RESET?INITDEVICE
001295H   00129BH   000007H   BYTE   UNIT     CODE           ?PR?PORTS_1_ENTER_MODE2_FROM_DEFAULTMODE?INITDEVICE
00129CH   0012A2H   000007H   BYTE   UNIT     CODE           ?PR?PBCFG_0_ENTER_MODE2_FROM_DEFAULTMODE?INITDEVICE
0012A3H   0012A9H   000007H   BYTE   UNIT     CODE           ?PR?INTERRUPT_0_ENTER_MODE2_FROM_DEFAULTMODE?INITDEVICE
0012AAH   0012ADH   000004H   BYTE   UNIT     CODE           ?PR?CLOCK_0_ENTER_DEFAULTMODE_FROM_RESET?INITDEVICE
0012AEH   0012B1H   000004H   BYTE   UNIT     CODE           ?PR?SMBUS_0_ENTER_MODE2_FROM_DEFAULTMODE?INITDEVICE
0012B2H   0012B5H   000004H   BYTE   UNIT     CODE           ?PR?UART_0_ENTER_DEFAULTMODE_FROM_RESET?INITDEVICE

* * * * * * * * * * *  X D A T A   M E M O R Y  * * * * * * * * * * * * *
000000H   000000H   000001H   BYTE   OFFS..   XDATA          ?XD?F99X_SMBUS_MASTER?0

* * * * * * * * *   R E M O V E D     S E G M E N T S   * * * * * * * *
   *DEL*:           00000AH   BYTE   UNIT     CODE           ?PR?SLEEPMODE?F99X_SMBUS_MASTER
   *DEL*:           00000CH   BYTE   UNIT     CODE           ?PR?WAKEUP?F99X_SMBUS_MASTER



OVERLAY MAP OF MODULE:   F99X-98X_SMBUS_MASTER.OMF.CRBUILD (F99X_SMBUS_MASTER)


FUNCTION/MODULE                                BIT_GROUP   DATA_GROUP 
--> CALLED FUNCTION/MODULE                    START  STOP  START  STOP
======================================================================
TIMER2_ISR/F99X_SMBUS_MASTER                  ----- -----  ----- -----

*** NEW ROOT ********************************

SMBUS0_ISR/INTERRUPTS                         20H.4 20H.4  ----- -----

*** NEW ROOT ********************************

TIMER3_ISR/INTERRUPTS                         ----- -----  ----- -----

*** NEW ROOT ********************************

?C_C51STARTUP                                 ----- -----  ----- -----
  +--> SILABS_STARTUP/F99X_SMBUS_MASTER
  +--> MAIN/F99X_SMBUS_MASTER
  +--> ?C_INITSEG

SILABS_STARTUP/F99X_SMBUS_MASTER              ----- -----  ----- -----

MAIN/F99X_SMBUS_MASTER                        ----- -----  ----- -----
  +--> ENTER_DEFAULTMODE_FROM_RESET/INITDEVICE
  +--> ENTER_MODE2_FROM_DEFAULTMODE/INITDEVICE
  +--> UART_INIT/F99X_SMBUS_MASTER
  +--> _SMB_WRITE_REG/F99X_SMBUS_MASTER
  +--> GETTEMP/F99X_SMBUS_MASTER
  +--> GETHUM/F99X_SMBUS_MASTER
  +--> GETHEAT/F99X_SMBUS_MASTER
  +--> GETGAS/F99X_SMBUS_MASTER
  +--> READ_CO2/F99X_SMBUS_MASTER
  +--> ?CO?F99X_SMBUS_MASTER
  +--> _PRINT/F99X_SMBUS_MASTER

ENTER_DEFAULTMODE_FROM_RESET/INITDEVICE       ----- -----  ----- -----
  +--> PCA_0_ENTER_DEFAULTMODE_FROM_RESET/INITDEVICE
  +--> VREG_0_ENTER_DEFAULTMODE_FROM_RESET/INITDEVICE
  +--> HFOSC_0_ENTER_DEFAULTMODE_FROM_RESET/INITDEVICE
  +--> CLOCK_0_ENTER_DEFAULTMODE_FROM_RESET/INITDEVICE
  +--> TIMER01_0_ENTER_DEFAULTMODE_FROM_RESET/INITDEVICE
LX51 LINKER/LOCATER V4.66.30.0                                                        04/26/2018  14:22:13  PAGE 4


  +--> TIMER16_2_ENTER_DEFAULTMODE_FROM_RESET/INITDEVICE
  +--> UART_0_ENTER_DEFAULTMODE_FROM_RESET/INITDEVICE

PCA_0_ENTER_DEFAULTMODE_FROM_RESET/INITD+     ----- -----  ----- -----
... EVICE

VREG_0_ENTER_DEFAULTMODE_FROM_RESET/INIT+     ----- -----  ----- -----
... DEVICE

HFOSC_0_ENTER_DEFAULTMODE_FROM_RESET/INI+     ----- -----  ----- -----
... TDEVICE

CLOCK_0_ENTER_DEFAULTMODE_FROM_RESET/INI+     ----- -----  ----- -----
... TDEVICE

TIMER01_0_ENTER_DEFAULTMODE_FROM_RESET/I+     ----- -----  ----- -----
... NITDEVICE

TIMER16_2_ENTER_DEFAULTMODE_FROM_RESET/I+     ----- -----  ----- -----
... NITDEVICE

UART_0_ENTER_DEFAULTMODE_FROM_RESET/INIT+     ----- -----  ----- -----
... DEVICE

ENTER_MODE2_FROM_DEFAULTMODE/INITDEVICE       ----- -----  ----- -----
  +--> PORTS_1_ENTER_MODE2_FROM_DEFAULTMODE/INITDEVICE
  +--> PBCFG_0_ENTER_MODE2_FROM_DEFAULTMODE/INITDEVICE
  +--> TIMER00_0_ENTER_MODE2_FROM_DEFAULTMODE/INITDEVICE
  +--> TIMER16_3_ENTER_MODE2_FROM_DEFAULTMODE/INITDEVICE
  +--> TIMER_SETUP_0_ENTER_MODE2_FROM_DEFAULTMODE/INITDEVICE
  +--> SMBUS_0_ENTER_MODE2_FROM_DEFAULTMODE/INITDEVICE
  +--> INTERRUPT_0_ENTER_MODE2_FROM_DEFAULTMODE/INITDEVICE

PORTS_1_ENTER_MODE2_FROM_DEFAULTMODE/INI+     ----- -----  ----- -----
... TDEVICE

PBCFG_0_ENTER_MODE2_FROM_DEFAULTMODE/INI+     ----- -----  ----- -----
... TDEVICE

TIMER00_0_ENTER_MODE2_FROM_DEFAULTMODE/I+     ----- -----  ----- -----
... NITDEVICE

TIMER16_3_ENTER_MODE2_FROM_DEFAULTMODE/I+     ----- -----  ----- -----
... NITDEVICE

TIMER_SETUP_0_ENTER_MODE2_FROM_DEFAULTMO+     ----- -----  ----- -----
... DE/INITDEVICE

SMBUS_0_ENTER_MODE2_FROM_DEFAULTMODE/INI+     ----- -----  ----- -----
... TDEVICE

INTERRUPT_0_ENTER_MODE2_FROM_DEFAULTMODE+     ----- -----  ----- -----
... /INITDEVICE

UART_INIT/F99X_SMBUS_MASTER                   ----- -----  ----- -----

_SMB_WRITE_REG/F99X_SMBUS_MASTER              ----- -----  ----- -----
  +--> SMB_WRITE/F99X_SMBUS_MASTER

SMB_WRITE/F99X_SMBUS_MASTER                   ----- -----  ----- -----

GETTEMP/F99X_SMBUS_MASTER                     ----- -----  004FH 0067H
LX51 LINKER/LOCATER V4.66.30.0                                                        04/26/2018  14:22:13  PAGE 5


  +--> _SMB_READ_REG/F99X_SMBUS_MASTER

_SMB_READ_REG/F99X_SMBUS_MASTER               ----- -----  0076H 0076H
  +--> SMB_WRITE/F99X_SMBUS_MASTER
  +--> SMB_READ/F99X_SMBUS_MASTER

SMB_READ/F99X_SMBUS_MASTER                    ----- -----  ----- -----

GETHUM/F99X_SMBUS_MASTER                      ----- -----  004FH 0075H
  +--> _SMB_READ_REG/F99X_SMBUS_MASTER

GETHEAT/F99X_SMBUS_MASTER                     ----- -----  004FH 0070H
  +--> _SMB_READ_REG/F99X_SMBUS_MASTER

GETGAS/F99X_SMBUS_MASTER                      ----- -----  004FH 006CH
  +--> _SMB_READ_REG/F99X_SMBUS_MASTER

READ_CO2/F99X_SMBUS_MASTER                    ----- -----  004FH 0052H
  +--> SMB_WRITE/F99X_SMBUS_MASTER
  +--> SMB_READ/F99X_SMBUS_MASTER

?CO?F99X_SMBUS_MASTER                         ----- -----  ----- -----

_PRINT/F99X_SMBUS_MASTER                      ----- -----  004FH 0061H
  +--> _UART_SEND/F99X_SMBUS_MASTER

_UART_SEND/F99X_SMBUS_MASTER                  ----- -----  ----- -----

?C_INITSEG                                    ----- -----  ----- -----



PUBLIC SYMBOLS OF MODULE:  F99X-98X_SMBUS_MASTER.OMF.CRBUILD (F99X_SMBUS_MASTER)


      VALUE       CLASS    TYPE      PUBLIC SYMBOL NAME
      =================================================
      01000352H   CODE     ---       ?C?CASTF
      010003D3H   CODE     ---       ?C?CLDPTR
      00000000H   NUMBER   ---       ?C?CODESEG
      010003ECH   CODE     ---       ?C?CSTPTR
      0100031EH   CODE     ---       ?C?FCASTC
      01000319H   CODE     ---       ?C?FCASTI
      01000314H   CODE     ---       ?C?FCASTL
      0100007DH   CODE     ---       ?C?FPADD
      01000277H   CODE     ---       ?C?FPDIV
      01000389H   CODE     ---       ?C?FPGETOPN2
      0100016EH   CODE     ---       ?C?FPMUL
      010003BEH   CODE     ---       ?C?FPNANRESULT
      010003C8H   CODE     ---       ?C?FPOVERFLOW
      010003A0H   CODE     ---       ?C?FPRESULT
      010003B4H   CODE     ---       ?C?FPRESULT2
      01000079H   CODE     ---       ?C?FPSUB
      010003C5H   CODE     ---       ?C?FPUNDERFLOW
      010003FEH   CODE     ---       ?C?IMUL
      01000410H   CODE     ---       ?C?LMUL
      0100052DH   CODE     ---       ?C?LNEG
      01000576H   CODE     ---       ?C?LSHL
      0100053BH   CODE     ---       ?C?SLCMP
      01001183H   CODE     ---       ?C?SLDIV
      01000562H   CODE     ---       ?C?SLSHR
      01000551H   CODE     ---       ?C?ULCMP
LX51 LINKER/LOCATER V4.66.30.0                                                        04/26/2018  14:22:13  PAGE 6


      0100049BH   CODE     ---       ?C?ULDIV
      00000000H   NUMBER   ---       ?C?XDATASEG
      01001069H   CODE     ---       ?C_START
      01000000H   CODE     NEAR LAB  ?C_STARTUP
      01000F55H   CODE     ---       _print
      0100003EH   CODE     ---       _SMB_Read_Reg
      010011CDH   CODE     ---       _SMB_Write_Reg
      01001286H   CODE     ---       _UART_Send
      0000004AH   DATA     LONG      a
*SFR* 000000E0H   DATA     BYTE      ACC
*SFR* 000000E0H   DATA     BIT       ACC_ACC0
*SFR* 000000E0H.1 DATA     BIT       ACC_ACC1
*SFR* 000000E0H.2 DATA     BIT       ACC_ACC2
*SFR* 000000E0H.3 DATA     BIT       ACC_ACC3
*SFR* 000000E0H.4 DATA     BIT       ACC_ACC4
*SFR* 000000E0H.5 DATA     BIT       ACC_ACC5
*SFR* 000000E0H.6 DATA     BIT       ACC_ACC6
*SFR* 000000E0H.7 DATA     BIT       ACC_ACC7
*SFR* 000000BDH   DATA     WORD      ADC0
*SFR* 000000BAH   DATA     BYTE      ADC0AC
*SFR* 00000097H   DATA     BYTE      ADC0CF
*SFR* 000000E8H   DATA     BYTE      ADC0CN
*SFR* 000000E8H.6 DATA     BIT       ADC0CN_ADBMEN
*SFR* 000000E8H.4 DATA     BIT       ADC0CN_ADBUSY
*SFR* 000000E8H   DATA     BIT       ADC0CN_ADCM0
*SFR* 000000E8H.1 DATA     BIT       ADC0CN_ADCM1
*SFR* 000000E8H.2 DATA     BIT       ADC0CN_ADCM2
*SFR* 000000E8H.7 DATA     BIT       ADC0CN_ADEN
*SFR* 000000E8H.5 DATA     BIT       ADC0CN_ADINT
*SFR* 000000E8H.3 DATA     BIT       ADC0CN_ADWINT
*SFR* 000000C3H   DATA     WORD      ADC0GT
*SFR* 000000C4H   DATA     BYTE      ADC0GTH
*SFR* 000000C3H   DATA     BYTE      ADC0GTL
*SFR* 000000BEH   DATA     BYTE      ADC0H
*SFR* 000000BDH   DATA     BYTE      ADC0L
*SFR* 000000C5H   DATA     WORD      ADC0LT
*SFR* 000000C6H   DATA     BYTE      ADC0LTH
*SFR* 000000C5H   DATA     BYTE      ADC0LTL
*SFR* 00000096H   DATA     BYTE      ADC0MX
*SFR* 000000BBH   DATA     BYTE      ADC0PWR
*SFR* 000000BCH   DATA     BYTE      ADC0TK
      00000008H   DATA     BYTE      ADDR_SEND
*SFR* 000000F0H   DATA     BYTE      B
*SFR* 000000F0H   DATA     BIT       B_B0
*SFR* 000000F0H.1 DATA     BIT       B_B1
*SFR* 000000F0H.2 DATA     BIT       B_B2
*SFR* 000000F0H.3 DATA     BIT       B_B3
*SFR* 000000F0H.4 DATA     BIT       B_B4
*SFR* 000000F0H.5 DATA     BIT       B_B5
*SFR* 000000F0H.6 DATA     BIT       B_B6
*SFR* 000000F0H.7 DATA     BIT       B_B7
      00000043H   DATA     DWORD     cc
*SFR* 0000008EH   DATA     BYTE      CKCON
*SFR* 000000A9H   DATA     BYTE      CLKSEL
      010012AAH   CODE     ---       CLOCK_0_enter_DefaultMode_from_RESET
      00000020H.2 BIT      BIT       CO2_MODE
*SFR* 0000009BH   DATA     BYTE      CPT0CN
*SFR* 0000009DH   DATA     BYTE      CPT0MD
*SFR* 0000009FH   DATA     BYTE      CPT0MX
*SFR* 0000009EH   DATA     BYTE      CRC0AUTO
*SFR* 00000084H   DATA     BYTE      CRC0CN
*SFR* 0000009AH   DATA     BYTE      CRC0CNT
LX51 LINKER/LOCATER V4.66.30.0                                                        04/26/2018  14:22:13  PAGE 7


*SFR* 00000086H   DATA     BYTE      CRC0DAT
*SFR* 0000009CH   DATA     BYTE      CRC0FLIP
*SFR* 00000085H   DATA     BYTE      CRC0IN
*SFR* 000000AAH   DATA     BYTE      CS0CF
*SFR* 000000B0H   DATA     BYTE      CS0CN
*SFR* 000000B0H.4 DATA     BIT       CS0CN_CSBUSY
*SFR* 000000B0H.3 DATA     BIT       CS0CN_CSCMPEN
*SFR* 000000B0H   DATA     BIT       CS0CN_CSCMPF
*SFR* 000000B0H.7 DATA     BIT       CS0CN_CSEN
*SFR* 000000B0H.6 DATA     BIT       CS0CN_CSEOS
*SFR* 000000B0H.5 DATA     BIT       CS0CN_CSINT
*SFR* 000000B0H.1 DATA     BIT       CS0CN_CSPME
*SFR* 000000EEH   DATA     BYTE      CS0DH
*SFR* 000000EDH   DATA     BYTE      CS0DL
*SFR* 000000AFH   DATA     BYTE      CS0MD1
*SFR* 000000F3H   DATA     BYTE      CS0MD2
*SFR* 000000F3H   DATA     BYTE      CS0MD3
*SFR* 000000ABH   DATA     BYTE      CS0MX
*SFR* 000000DEH   DATA     BYTE      CS0PM
*SFR* 000000D2H   DATA     BYTE      CS0SCAN0
*SFR* 000000D3H   DATA     BYTE      CS0SCAN1
*SFR* 000000DEH   DATA     BYTE      CS0SE
*SFR* 000000DDH   DATA     BYTE      CS0SS
*SFR* 000000FEH   DATA     BYTE      CS0THH
*SFR* 000000FDH   DATA     BYTE      CS0THL
      00000040H   DATA     WORD      DATA_CO2_IN
      00000026H   DATA     ---       DATA_CO2_OUT
*SFR* 000000E3H   DATA     BYTE      DERIVID
*SFR* 00000082H   DATA     WORD      DP
*SFR* 00000083H   DATA     BYTE      DPH
*SFR* 00000082H   DATA     BYTE      DPL
*SFR* 000000E6H   DATA     BYTE      EIE1
*SFR* 000000E7H   DATA     BYTE      EIE2
*SFR* 000000F6H   DATA     BYTE      EIP1
*SFR* 000000F7H   DATA     BYTE      EIP2
      01001214H   CODE     ---       enter_DefaultMode_from_RESET
      01001229H   CODE     ---       enter_Mode2_from_DefaultMode
*SFR* 000000B7H   DATA     BYTE      FLKEY
*SFR* 000000B6H   DATA     BYTE      FLSCL
*SFR* 000000E5H   DATA     BYTE      FLWR
      0000003CH   DATA     LONG      gas_range
      01000589H   CODE     ---       getGas
      01000A78H   CODE     ---       getHeat
      01000835H   CODE     ---       getHum
      01000C13H   CODE     ---       getTemp
      0100006FH   CODE     ---       HFOSC_0_enter_DefaultMode_from_RESET
*SFR* 000000A8H   DATA     BYTE      IE
*SFR* 000000A8H.7 DATA     BIT       IE_EA
*SFR* 000000A8H.4 DATA     BIT       IE_ES0
*SFR* 000000A8H.6 DATA     BIT       IE_ESPI0
*SFR* 000000A8H.1 DATA     BIT       IE_ET0
*SFR* 000000A8H.3 DATA     BIT       IE_ET1
*SFR* 000000A8H.5 DATA     BIT       IE_ET2
*SFR* 000000A8H   DATA     BIT       IE_EX0
*SFR* 000000A8H.2 DATA     BIT       IE_EX1
      010012A3H   CODE     ---       INTERRUPT_0_enter_Mode2_from_DefaultMode
*SFR* 000000B8H   DATA     BYTE      IP
*SFR* 000000B8H.4 DATA     BIT       IP_PS0
*SFR* 000000B8H.6 DATA     BIT       IP_PSPI0
*SFR* 000000B8H.1 DATA     BIT       IP_PT0
*SFR* 000000B8H.3 DATA     BIT       IP_PT1
*SFR* 000000B8H.5 DATA     BIT       IP_PT2
LX51 LINKER/LOCATER V4.66.30.0                                                        04/26/2018  14:22:13  PAGE 8


*SFR* 000000B8H   DATA     BIT       IP_PX0
*SFR* 000000B8H.2 DATA     BIT       IP_PX1
*SFR* 000000B9H   DATA     BYTE      IREF0CF
*SFR* 000000D6H   DATA     BYTE      IREF0CN
*SFR* 000000E4H   DATA     BYTE      IT01CF
      00000021H   DATA     BYTE      length
      01000E64H   CODE     ---       main
*SFR* 000000B3H   DATA     BYTE      OSCICL
*SFR* 000000B2H   DATA     BYTE      OSCICN
*SFR* 000000B1H   DATA     BYTE      OSCXCN
*SFR* 00000080H   DATA     BYTE      P0
*SFR* 00000080H   DATA     BIT       P0_B0
*SFR* 00000080H.1 DATA     BIT       P0_B1
*SFR* 00000080H.2 DATA     BIT       P0_B2
*SFR* 00000080H.3 DATA     BIT       P0_B3
*SFR* 00000080H.4 DATA     BIT       P0_B4
*SFR* 00000080H.5 DATA     BIT       P0_B5
*SFR* 00000080H.6 DATA     BIT       P0_B6
*SFR* 00000080H.7 DATA     BIT       P0_B7
*SFR* 00000099H   DATA     BYTE      P0DRV
*SFR* 000000C7H   DATA     BYTE      P0MASK
*SFR* 000000D7H   DATA     BYTE      P0MAT
*SFR* 000000F1H   DATA     BYTE      P0MDIN
*SFR* 000000A4H   DATA     BYTE      P0MDOUT
*SFR* 000000D4H   DATA     BYTE      P0SKIP
*SFR* 00000090H   DATA     BYTE      P1
*SFR* 00000090H   DATA     BIT       P1_B0
*SFR* 00000090H.1 DATA     BIT       P1_B1
*SFR* 00000090H.2 DATA     BIT       P1_B2
*SFR* 00000090H.3 DATA     BIT       P1_B3
*SFR* 00000090H.4 DATA     BIT       P1_B4
*SFR* 00000090H.5 DATA     BIT       P1_B5
*SFR* 00000090H.6 DATA     BIT       P1_B6
*SFR* 00000090H.7 DATA     BIT       P1_B7
*SFR* 0000009BH   DATA     BYTE      P1DRV
*SFR* 000000BFH   DATA     BYTE      P1MASK
*SFR* 000000CFH   DATA     BYTE      P1MAT
*SFR* 000000F2H   DATA     BYTE      P1MDIN
*SFR* 000000A5H   DATA     BYTE      P1MDOUT
*SFR* 000000D5H   DATA     BYTE      P1SKIP
*SFR* 000000A0H   DATA     BYTE      P2
*SFR* 000000A0H.7 DATA     BIT       P2_B7
*SFR* 0000009DH   DATA     BYTE      P2DRV
*SFR* 000000A6H   DATA     BYTE      P2MDOUT
      0100129CH   CODE     ---       PBCFG_0_enter_Mode2_from_DefaultMode
*SFR* 000000F9H   DATA     WORD      PCA0
*SFR* 000000D8H   DATA     BYTE      PCA0CN
*SFR* 000000D8H   DATA     BIT       PCA0CN_CCF0
*SFR* 000000D8H.1 DATA     BIT       PCA0CN_CCF1
*SFR* 000000D8H.2 DATA     BIT       PCA0CN_CCF2
*SFR* 000000D8H.7 DATA     BIT       PCA0CN_CF
*SFR* 000000D8H.6 DATA     BIT       PCA0CN_CR
*SFR* 000000FBH   DATA     WORD      PCA0CP0
*SFR* 000000E9H   DATA     WORD      PCA0CP1
*SFR* 000000EBH   DATA     WORD      PCA0CP2
*SFR* 000000FCH   DATA     BYTE      PCA0CPH0
*SFR* 000000EAH   DATA     BYTE      PCA0CPH1
*SFR* 000000ECH   DATA     BYTE      PCA0CPH2
*SFR* 000000FBH   DATA     BYTE      PCA0CPL0
*SFR* 000000E9H   DATA     BYTE      PCA0CPL1
*SFR* 000000EBH   DATA     BYTE      PCA0CPL2
*SFR* 000000DAH   DATA     BYTE      PCA0CPM0
LX51 LINKER/LOCATER V4.66.30.0                                                        04/26/2018  14:22:13  PAGE 9


*SFR* 000000DBH   DATA     BYTE      PCA0CPM1
*SFR* 000000DCH   DATA     BYTE      PCA0CPM2
*SFR* 000000FAH   DATA     BYTE      PCA0H
*SFR* 000000F9H   DATA     BYTE      PCA0L
*SFR* 000000D9H   DATA     BYTE      PCA0MD
*SFR* 000000DFH   DATA     BYTE      PCA0PWM
      0100128EH   CODE     ---       PCA_0_enter_DefaultMode_from_RESET
*SFR* 00000087H   DATA     BYTE      PCON
*SFR* 000000B5H   DATA     BYTE      PMU0CF
*SFR* 000000CEH   DATA     BYTE      PMU0FL
*SFR* 000000B5H   DATA     BYTE      PMU0MD
      01001295H   CODE     ---       PORTS_1_enter_Mode2_from_DefaultMode
*SFR* 000000A0H   DATA     BYTE      PPAGE_SFR
*SFR* 0000008FH   DATA     BYTE      PSCTL
*SFR* 000000D0H   DATA     BYTE      PSW
*SFR* 000000D0H.6 DATA     BIT       PSW_AC
*SFR* 000000D0H.7 DATA     BIT       PSW_CY
*SFR* 000000D0H.5 DATA     BIT       PSW_F0
*SFR* 000000D0H.1 DATA     BIT       PSW_F1
*SFR* 000000D0H.2 DATA     BIT       PSW_OV
*SFR* 000000D0H   DATA     BIT       PSW_PARITY
*SFR* 000000D0H.3 DATA     BIT       PSW_RS0
*SFR* 000000D0H.4 DATA     BIT       PSW_RS1
      01001128H   CODE     ---       Read_CO2
      00000020H.1 BIT      BIT       ready
*SFR* 000000D1H   DATA     BYTE      REF0CN
*SFR* 000000C9H   DATA     BYTE      REG0CN
      02000000H   XDATA    BYTE      reserved
*SFR* 000000E2H   DATA     BYTE      REVID
*SFR* 000000EFH   DATA     BYTE      RSTSRC
*SFR* 000000ACH   DATA     BYTE      RTC0ADR
*SFR* 000000ADH   DATA     BYTE      RTC0DAT
*SFR* 000000AEH   DATA     BYTE      RTC0KEY
      00000037H   DATA     BYTE      RW_Reg
*SFR* 00000099H   DATA     BYTE      SBUF0
*SFR* 00000080H.1 DATA     BIT       SCL
*SFR* 00000098H   DATA     BYTE      SCON0
*SFR* 00000098H.5 DATA     BIT       SCON0_MCE
*SFR* 00000098H.2 DATA     BIT       SCON0_RB8
*SFR* 00000098H.4 DATA     BIT       SCON0_REN
*SFR* 00000098H   DATA     BIT       SCON0_RI
*SFR* 00000098H.7 DATA     BIT       SCON0_SMODE
*SFR* 00000098H.3 DATA     BIT       SCON0_TB8
*SFR* 00000098H.1 DATA     BIT       SCON0_TI
*SFR* 00000080H   DATA     BIT       SDA
*SFR* 000000A7H   DATA     BYTE      SFRPAGE
      01000029H   CODE     ---       SiLabs_Startup
*DEL*:00000000H   CODE     ---       sleepMode
*SFR* 000000F5H   DATA     BYTE      SMB0ADM
*SFR* 000000F4H   DATA     BYTE      SMB0ADR
*SFR* 000000C1H   DATA     BYTE      SMB0CF
*SFR* 000000C0H   DATA     BYTE      SMB0CN
*SFR* 000000C0H.1 DATA     BIT       SMB0CN_ACK
*SFR* 000000C0H.3 DATA     BIT       SMB0CN_ACKRQ
*SFR* 000000C0H.2 DATA     BIT       SMB0CN_ARBLOST
*SFR* 000000C0H.7 DATA     BIT       SMB0CN_MASTER
*SFR* 000000C0H   DATA     BIT       SMB0CN_SI
*SFR* 000000C0H.5 DATA     BIT       SMB0CN_STA
*SFR* 000000C0H.4 DATA     BIT       SMB0CN_STO
*SFR* 000000C0H.6 DATA     BIT       SMB0CN_TXMODE
*SFR* 000000C2H   DATA     BYTE      SMB0DAT
      00000020H.0 BIT      BIT       SMB_BUSY
LX51 LINKER/LOCATER V4.66.30.0                                                        04/26/2018  14:22:13  PAGE 10


      00000049H   DATA     BYTE      SMB_DATA_IN
      00000042H   DATA     BYTE      SMB_DATA_OUT
      0100124CH   CODE     ---       SMB_Read
      0000004EH   DATA     BYTE      SMB_REG_OUT
      00000020H.3 BIT      BIT       SMB_RW
      0100127CH   CODE     ---       SMB_Write
      01000D4EH   CODE     ---       SMBUS0_ISR
      010012AEH   CODE     ---       SMBUS_0_enter_Mode2_from_DefaultMode
*SFR* 00000081H   DATA     BYTE      SP
*SFR* 000000A1H   DATA     BYTE      SPI0CFG
*SFR* 000000A2H   DATA     BYTE      SPI0CKR
*SFR* 000000F8H   DATA     BYTE      SPI0CN
*SFR* 000000F8H.5 DATA     BIT       SPI0CN_MODF
*SFR* 000000F8H.2 DATA     BIT       SPI0CN_NSSMD0
*SFR* 000000F8H.3 DATA     BIT       SPI0CN_NSSMD1
*SFR* 000000F8H.4 DATA     BIT       SPI0CN_RXOVRN
*SFR* 000000F8H   DATA     BIT       SPI0CN_SPIEN
*SFR* 000000F8H.7 DATA     BIT       SPI0CN_SPIF
*SFR* 000000F8H.1 DATA     BIT       SPI0CN_TXBMT
*SFR* 000000F8H.6 DATA     BIT       SPI0CN_WCOL
*SFR* 000000A3H   DATA     BYTE      SPI0DAT
      00000048H   DATA     BYTE      START_SMB
      00000047H   DATA     BYTE      TARGET
*SFR* 00000088H   DATA     BYTE      TCON
*SFR* 00000088H.1 DATA     BIT       TCON_IE0
*SFR* 00000088H.3 DATA     BIT       TCON_IE1
*SFR* 00000088H   DATA     BIT       TCON_IT0
*SFR* 00000088H.2 DATA     BIT       TCON_IT1
*SFR* 00000088H.5 DATA     BIT       TCON_TF0
*SFR* 00000088H.7 DATA     BIT       TCON_TF1
*SFR* 00000088H.4 DATA     BIT       TCON_TR0
*SFR* 00000088H.6 DATA     BIT       TCON_TR1
      00000022H   DATA     LONG      temp_scaled
*SFR* 0000008CH   DATA     BYTE      TH0
*SFR* 0000008DH   DATA     BYTE      TH1
      01001266H   CODE     ---       TIMER00_0_enter_Mode2_from_DefaultMode
      01001271H   CODE     ---       TIMER01_0_enter_DefaultMode_from_RESET
      010011FBH   CODE     ---       TIMER16_2_enter_DefaultMode_from_RESET
      010011E2H   CODE     ---       TIMER16_3_enter_Mode2_from_DefaultMode
      010010AEH   CODE     ---       TIMER2_ISR
      0100123EH   CODE     ---       TIMER3_ISR
      01001259H   CODE     ---       TIMER_SETUP_0_enter_Mode2_from_DefaultMode
*SFR* 0000008AH   DATA     BYTE      TL0
*SFR* 0000008BH   DATA     BYTE      TL1
*SFR* 00000089H   DATA     BYTE      TMOD
*SFR* 000000CCH   DATA     WORD      TMR2
*SFR* 000000C8H   DATA     BYTE      TMR2CN
*SFR* 000000C8H.3 DATA     BIT       TMR2CN_T2SPLIT
*SFR* 000000C8H   DATA     BIT       TMR2CN_T2XCLK0
*SFR* 000000C8H.1 DATA     BIT       TMR2CN_T2XCLK1
*SFR* 000000C8H.4 DATA     BIT       TMR2CN_TF2CEN
*SFR* 000000C8H.7 DATA     BIT       TMR2CN_TF2H
*SFR* 000000C8H.6 DATA     BIT       TMR2CN_TF2L
*SFR* 000000C8H.5 DATA     BIT       TMR2CN_TF2LEN
*SFR* 000000C8H.2 DATA     BIT       TMR2CN_TR2
*SFR* 000000CDH   DATA     BYTE      TMR2H
*SFR* 000000CCH   DATA     BYTE      TMR2L
*SFR* 000000CAH   DATA     WORD      TMR2RL
*SFR* 000000CBH   DATA     BYTE      TMR2RLH
*SFR* 000000CAH   DATA     BYTE      TMR2RLL
*SFR* 00000094H   DATA     WORD      TMR3
*SFR* 00000091H   DATA     BYTE      TMR3CN
LX51 LINKER/LOCATER V4.66.30.0                                                        04/26/2018  14:22:13  PAGE 11


*SFR* 00000095H   DATA     BYTE      TMR3H
*SFR* 00000094H   DATA     BYTE      TMR3L
*SFR* 00000092H   DATA     WORD      TMR3RL
*SFR* 00000093H   DATA     BYTE      TMR3RLH
*SFR* 00000092H   DATA     BYTE      TMR3RLL
*SFR* 0000008EH   DATA     BYTE      TOFFH
*SFR* 0000008DH   DATA     BYTE      TOFFL
      010012B2H   CODE     ---       UART_0_enter_DefaultMode_from_RESET
      0100002EH   CODE     ---       UART_Init
      0000002BH   DATA     LONG      v1
      0000002FH   DATA     LONG      v2
      00000033H   DATA     LONG      v3
      00000038H   DATA     LONG      v4
*SFR* 000000FFH   DATA     BYTE      VDM0CN
      01000025H   CODE     ---       VREG_0_enter_DefaultMode_from_RESET
*DEL*:00000000H   CODE     ---       wakeUp
*SFR* 000000E1H   DATA     BYTE      XBR0
*SFR* 000000E2H   DATA     BYTE      XBR1
*SFR* 000000E3H   DATA     BYTE      XBR2
*SFR* 00000090H.3 DATA     BIT       YELLOW_LED



SYMBOL TABLE OF MODULE:  F99X-98X_SMBUS_MASTER.OMF.CRBUILD (F99X_SMBUS_MASTER)

      VALUE       REP       CLASS    TYPE      SYMBOL NAME
      ====================================================
      ---         MODULE    ---      ---       F99X_SMBUS_MASTER
      0000004EH   PUBLIC    DATA     BYTE      SMB_REG_OUT
      00000020H.3 PUBLIC    BIT      BIT       SMB_RW
      02000000H   PUBLIC    XDATA    BYTE      reserved
      0000004AH   PUBLIC    DATA     LONG      a
      00000049H   PUBLIC    DATA     BYTE      SMB_DATA_IN
      00000048H   PUBLIC    DATA     BYTE      START_SMB
      00000020H.2 PUBLIC    BIT      BIT       CO2_MODE
      00000047H   PUBLIC    DATA     BYTE      TARGET
      00000043H   PUBLIC    DATA     DWORD     cc
      00000042H   PUBLIC    DATA     BYTE      SMB_DATA_OUT
      00000040H   PUBLIC    DATA     WORD      DATA_CO2_IN
      0000003CH   PUBLIC    DATA     LONG      gas_range
      00000038H   PUBLIC    DATA     LONG      v4
      00000037H   PUBLIC    DATA     BYTE      RW_Reg
      00000033H   PUBLIC    DATA     LONG      v3
      0000002FH   PUBLIC    DATA     LONG      v2
      0000002BH   PUBLIC    DATA     LONG      v1
      00000026H   PUBLIC    DATA     ---       DATA_CO2_OUT
      00000020H.1 PUBLIC    BIT      BIT       ready
      00000022H   PUBLIC    DATA     LONG      temp_scaled
      00000020H.0 PUBLIC    BIT      BIT       SMB_BUSY
      00000021H   PUBLIC    DATA     BYTE      length
      010010AEH   PUBLIC    CODE     ---       TIMER2_ISR
      0100124CH   PUBLIC    CODE     ---       SMB_Read
      0100127CH   PUBLIC    CODE     ---       SMB_Write
      01000E64H   PUBLIC    CODE     ---       main
      01000A78H   PUBLIC    CODE     ---       getHeat
      01000589H   PUBLIC    CODE     ---       getGas
      01000835H   PUBLIC    CODE     ---       getHum
      01000C13H   PUBLIC    CODE     ---       getTemp
      010011CDH   PUBLIC    CODE     ---       _SMB_Write_Reg
      0100003EH   PUBLIC    CODE     ---       _SMB_Read_Reg
      01001128H   PUBLIC    CODE     ---       Read_CO2
      01000F55H   PUBLIC    CODE     ---       _print
LX51 LINKER/LOCATER V4.66.30.0                                                        04/26/2018  14:22:13  PAGE 12


      01001286H   PUBLIC    CODE     ---       _UART_Send
      0100002EH   PUBLIC    CODE     ---       UART_Init
      01000029H   PUBLIC    CODE     ---       SiLabs_Startup
      000000A2H   SFRSYM    DATA     BYTE      SPI0CKR
      00000080H   SFRSYM    DATA     BYTE      P0
      000000D0H.2 SFRSYM    DATA     BIT       PSW_OV
      000000D8H.7 SFRSYM    DATA     BIT       PCA0CN_CF
      00000090H   SFRSYM    DATA     BYTE      P1
      000000F8H.4 SFRSYM    DATA     BIT       SPI0CN_RXOVRN
      000000A0H   SFRSYM    DATA     BYTE      P2
      00000097H   SFRSYM    DATA     BYTE      ADC0CF
      000000C8H   SFRSYM    DATA     BIT       TMR2CN_T2XCLK0
      000000C8H.1 SFRSYM    DATA     BIT       TMR2CN_T2XCLK1
      000000E8H.7 SFRSYM    DATA     BIT       ADC0CN_ADEN
      000000F9H   SFRSYM    DATA     WORD      PCA0
      000000AEH   SFRSYM    DATA     BYTE      RTC0KEY
      000000E6H   SFRSYM    DATA     BYTE      EIE1
      000000E7H   SFRSYM    DATA     BYTE      EIE2
      0000008FH   SFRSYM    DATA     BYTE      PSCTL
      000000E4H   SFRSYM    DATA     BYTE      IT01CF
      000000E3H   SFRSYM    DATA     BYTE      DERIVID
      000000AFH   SFRSYM    DATA     BYTE      CS0MD1
      000000A7H   SFRSYM    DATA     BYTE      SFRPAGE
      000000F3H   SFRSYM    DATA     BYTE      CS0MD2
      000000E8H   SFRSYM    DATA     BYTE      ADC0CN
      000000A4H   SFRSYM    DATA     BYTE      P0MDOUT
      000000F3H   SFRSYM    DATA     BYTE      CS0MD3
      000000D8H.6 SFRSYM    DATA     BIT       PCA0CN_CR
      000000A5H   SFRSYM    DATA     BYTE      P1MDOUT
      000000CBH   SFRSYM    DATA     BYTE      TMR2RLH
      000000A6H   SFRSYM    DATA     BYTE      P2MDOUT
      000000A8H   SFRSYM    DATA     BYTE      IE
      00000093H   SFRSYM    DATA     BYTE      TMR3RLH
      000000F6H   SFRSYM    DATA     BYTE      EIP1
      000000F8H   SFRSYM    DATA     BIT       SPI0CN_SPIEN
      000000F7H   SFRSYM    DATA     BYTE      EIP2
      00000098H.2 SFRSYM    DATA     BIT       SCON0_RB8
      000000CAH   SFRSYM    DATA     BYTE      TMR2RLL
      000000FCH   SFRSYM    DATA     BYTE      PCA0CPH0
      00000092H   SFRSYM    DATA     BYTE      TMR3RLL
      000000EAH   SFRSYM    DATA     BYTE      PCA0CPH1
      00000098H.3 SFRSYM    DATA     BIT       SCON0_TB8
      000000F0H   SFRSYM    DATA     BIT       B_B0
      00000082H   SFRSYM    DATA     WORD      DP
      000000ECH   SFRSYM    DATA     BYTE      PCA0CPH2
      00000090H.3 SFRSYM    DATA     BIT       YELLOW_LED
      000000B0H.4 SFRSYM    DATA     BIT       CS0CN_CSBUSY
      000000F0H.1 SFRSYM    DATA     BIT       B_B1
      000000E8H.6 SFRSYM    DATA     BIT       ADC0CN_ADBMEN
      000000C3H   SFRSYM    DATA     WORD      ADC0GT
      000000F0H.2 SFRSYM    DATA     BIT       B_B2
      000000FBH   SFRSYM    DATA     BYTE      PCA0CPL0
      000000F0H.3 SFRSYM    DATA     BIT       B_B3
      000000D9H   SFRSYM    DATA     BYTE      PCA0MD
      000000DAH   SFRSYM    DATA     BYTE      PCA0CPM0
      000000E9H   SFRSYM    DATA     BYTE      PCA0CPL1
      000000D8H   SFRSYM    DATA     BYTE      PCA0CN
      000000F0H.4 SFRSYM    DATA     BIT       B_B4
      000000DBH   SFRSYM    DATA     BYTE      PCA0CPM1
      000000EBH   SFRSYM    DATA     BYTE      PCA0CPL2
      000000F0H.5 SFRSYM    DATA     BIT       B_B5
      000000DCH   SFRSYM    DATA     BYTE      PCA0CPM2
LX51 LINKER/LOCATER V4.66.30.0                                                        04/26/2018  14:22:13  PAGE 13


      000000B8H   SFRSYM    DATA     BYTE      IP
      000000BCH   SFRSYM    DATA     BYTE      ADC0TK
      000000F0H.6 SFRSYM    DATA     BIT       B_B6
      000000C5H   SFRSYM    DATA     WORD      ADC0LT
      00000098H.5 SFRSYM    DATA     BIT       SCON0_MCE
      000000F0H.7 SFRSYM    DATA     BIT       B_B7
      00000084H   SFRSYM    DATA     BYTE      CRC0CN
      000000E1H   SFRSYM    DATA     BYTE      XBR0
      000000C1H   SFRSYM    DATA     BYTE      SMB0CF
      000000E2H   SFRSYM    DATA     BYTE      XBR1
      000000D2H   SFRSYM    DATA     BYTE      CS0SCAN0
      000000E3H   SFRSYM    DATA     BYTE      XBR2
      000000D3H   SFRSYM    DATA     BYTE      CS0SCAN1
      00000096H   SFRSYM    DATA     BYTE      ADC0MX
      000000C0H.2 SFRSYM    DATA     BIT       SMB0CN_ARBLOST
      000000E0H   SFRSYM    DATA     BIT       ACC_ACC0
      000000D1H   SFRSYM    DATA     BYTE      REF0CN
      000000F8H.1 SFRSYM    DATA     BIT       SPI0CN_TXBMT
      000000E0H.1 SFRSYM    DATA     BIT       ACC_ACC1
      000000C9H   SFRSYM    DATA     BYTE      REG0CN
      00000085H   SFRSYM    DATA     BYTE      CRC0IN
      000000C0H   SFRSYM    DATA     BIT       SMB0CN_SI
      000000E0H.2 SFRSYM    DATA     BIT       ACC_ACC2
      000000E0H.3 SFRSYM    DATA     BIT       ACC_ACC3
      00000081H   SFRSYM    DATA     BYTE      SP
      000000E0H.4 SFRSYM    DATA     BIT       ACC_ACC4
      000000E0H.5 SFRSYM    DATA     BIT       ACC_ACC5
      000000C0H   SFRSYM    DATA     BYTE      SMB0CN
      000000E0H.6 SFRSYM    DATA     BIT       ACC_ACC6
      000000CCH   SFRSYM    DATA     WORD      TMR2
      000000E0H.7 SFRSYM    DATA     BIT       ACC_ACC7
      00000094H   SFRSYM    DATA     WORD      TMR3
      000000FFH   SFRSYM    DATA     BYTE      VDM0CN
      000000F1H   SFRSYM    DATA     BYTE      P0MDIN
      0000009DH   SFRSYM    DATA     BYTE      CPT0MD
      0000009BH   SFRSYM    DATA     BYTE      CPT0CN
      00000098H.4 SFRSYM    DATA     BIT       SCON0_REN
      000000F2H   SFRSYM    DATA     BYTE      P1MDIN
      000000FEH   SFRSYM    DATA     BYTE      CS0THH
      000000B5H   SFRSYM    DATA     BYTE      PMU0CF
      000000C8H.7 SFRSYM    DATA     BIT       TMR2CN_TF2H
      000000C8H.3 SFRSYM    DATA     BIT       TMR2CN_T2SPLIT
      000000C7H   SFRSYM    DATA     BYTE      P0MASK
      000000F8H   SFRSYM    DATA     BYTE      SPI0CN
      000000BFH   SFRSYM    DATA     BYTE      P1MASK
      000000FDH   SFRSYM    DATA     BYTE      CS0THL
      000000D0H.3 SFRSYM    DATA     BIT       PSW_RS0
      00000087H   SFRSYM    DATA     BYTE      PCON
      000000C8H.6 SFRSYM    DATA     BIT       TMR2CN_TF2L
      000000D0H.4 SFRSYM    DATA     BIT       PSW_RS1
      000000E8H   SFRSYM    DATA     BIT       ADC0CN_ADCM0
      000000B0H.1 SFRSYM    DATA     BIT       CS0CN_CSPME
      000000E8H.1 SFRSYM    DATA     BIT       ADC0CN_ADCM1
      000000E8H.2 SFRSYM    DATA     BIT       ADC0CN_ADCM2
      000000E8H.3 SFRSYM    DATA     BIT       ADC0CN_ADWINT
      00000089H   SFRSYM    DATA     BYTE      TMOD
      00000088H   SFRSYM    DATA     BYTE      TCON
      000000B5H   SFRSYM    DATA     BYTE      PMU0MD
      000000E8H.4 SFRSYM    DATA     BIT       ADC0CN_ADBUSY
      000000CEH   SFRSYM    DATA     BYTE      PMU0FL
      0000009CH   SFRSYM    DATA     BYTE      CRC0FLIP
      000000F8H.5 SFRSYM    DATA     BIT       SPI0CN_MODF
LX51 LINKER/LOCATER V4.66.30.0                                                        04/26/2018  14:22:13  PAGE 14


      000000D0H   SFRSYM    DATA     BIT       PSW_PARITY
      000000A8H.4 SFRSYM    DATA     BIT       IE_ES0
      000000A8H.1 SFRSYM    DATA     BIT       IE_ET0
      000000B0H.6 SFRSYM    DATA     BIT       CS0CN_CSEOS
      000000C8H   SFRSYM    DATA     BYTE      TMR2CN
      000000A8H.3 SFRSYM    DATA     BIT       IE_ET1
      00000091H   SFRSYM    DATA     BYTE      TMR3CN
      000000D4H   SFRSYM    DATA     BYTE      P0SKIP
      000000A8H.5 SFRSYM    DATA     BIT       IE_ET2
      000000D5H   SFRSYM    DATA     BYTE      P1SKIP
      000000A8H   SFRSYM    DATA     BIT       IE_EX0
      000000B0H.5 SFRSYM    DATA     BIT       CS0CN_CSINT
      000000E5H   SFRSYM    DATA     BYTE      FLWR
      000000C8H.4 SFRSYM    DATA     BIT       TMR2CN_TF2CEN
      000000A8H.2 SFRSYM    DATA     BIT       IE_EX1
      0000009FH   SFRSYM    DATA     BYTE      CPT0MX
      00000098H.7 SFRSYM    DATA     BIT       SCON0_SMODE
      000000B3H   SFRSYM    DATA     BYTE      OSCICL
      000000A9H   SFRSYM    DATA     BYTE      CLKSEL
      000000B2H   SFRSYM    DATA     BYTE      OSCICN
      000000F0H   SFRSYM    DATA     BYTE      B
      000000BEH   SFRSYM    DATA     BYTE      ADC0H
      000000F8H.7 SFRSYM    DATA     BIT       SPI0CN_SPIF
      0000009EH   SFRSYM    DATA     BYTE      CRC0AUTO
      000000B0H.3 SFRSYM    DATA     BIT       CS0CN_CSCMPEN
      000000CAH   SFRSYM    DATA     WORD      TMR2RL
      000000BDH   SFRSYM    DATA     BYTE      ADC0L
      000000C8H.5 SFRSYM    DATA     BIT       TMR2CN_TF2LEN
      000000F8H.6 SFRSYM    DATA     BIT       SPI0CN_WCOL
      00000092H   SFRSYM    DATA     WORD      TMR3RL
      000000F8H.2 SFRSYM    DATA     BIT       SPI0CN_NSSMD0
      000000E0H   SFRSYM    DATA     BYTE      ACC
      000000F8H.3 SFRSYM    DATA     BIT       SPI0CN_NSSMD1
      000000FBH   SFRSYM    DATA     WORD      PCA0CP0
      000000E9H   SFRSYM    DATA     WORD      PCA0CP1
      000000EBH   SFRSYM    DATA     WORD      PCA0CP2
      0000008CH   SFRSYM    DATA     BYTE      TH0
      000000B8H.4 SFRSYM    DATA     BIT       IP_PS0
      0000008DH   SFRSYM    DATA     BYTE      TH1
      000000FAH   SFRSYM    DATA     BYTE      PCA0H
      000000B8H.1 SFRSYM    DATA     BIT       IP_PT0
      000000B8H.3 SFRSYM    DATA     BIT       IP_PT1
      000000B8H.5 SFRSYM    DATA     BIT       IP_PT2
      0000008AH   SFRSYM    DATA     BYTE      TL0
      000000B1H   SFRSYM    DATA     BYTE      OSCXCN
      000000AAH   SFRSYM    DATA     BYTE      CS0CF
      000000D0H.5 SFRSYM    DATA     BIT       PSW_F0
      000000A8H.6 SFRSYM    DATA     BIT       IE_ESPI0
      0000008BH   SFRSYM    DATA     BYTE      TL1
      000000F9H   SFRSYM    DATA     BYTE      PCA0L
      000000D0H.1 SFRSYM    DATA     BIT       PSW_F1
      00000080H   SFRSYM    DATA     BIT       P0_B0
      000000B8H   SFRSYM    DATA     BIT       IP_PX0
      00000090H   SFRSYM    DATA     BIT       P1_B0
      00000080H.1 SFRSYM    DATA     BIT       P0_B1
      000000B8H.2 SFRSYM    DATA     BIT       IP_PX1
      000000EEH   SFRSYM    DATA     BYTE      CS0DH
      00000088H.1 SFRSYM    DATA     BIT       TCON_IE0
      000000C0H.7 SFRSYM    DATA     BIT       SMB0CN_MASTER
      00000090H.1 SFRSYM    DATA     BIT       P1_B1
      00000080H.2 SFRSYM    DATA     BIT       P0_B2
      00000088H.3 SFRSYM    DATA     BIT       TCON_IE1
LX51 LINKER/LOCATER V4.66.30.0                                                        04/26/2018  14:22:13  PAGE 15


      000000C0H.1 SFRSYM    DATA     BIT       SMB0CN_ACK
      00000090H.2 SFRSYM    DATA     BIT       P1_B2
      00000080H.3 SFRSYM    DATA     BIT       P0_B3
      00000090H.3 SFRSYM    DATA     BIT       P1_B3
      00000080H.4 SFRSYM    DATA     BIT       P0_B4
      00000090H.4 SFRSYM    DATA     BIT       P1_B4
      00000080H.5 SFRSYM    DATA     BIT       P0_B5
      000000EDH   SFRSYM    DATA     BYTE      CS0DL
      00000080H   SFRSYM    DATA     BIT       SDA
      00000090H.5 SFRSYM    DATA     BIT       P1_B5
      00000080H.6 SFRSYM    DATA     BIT       P0_B6
      000000B0H   SFRSYM    DATA     BYTE      CS0CN
      000000C0H.6 SFRSYM    DATA     BIT       SMB0CN_TXMODE
      00000090H.6 SFRSYM    DATA     BIT       P1_B6
      00000080H.7 SFRSYM    DATA     BIT       P0_B7
      00000090H.7 SFRSYM    DATA     BIT       P1_B7
      000000A0H.7 SFRSYM    DATA     BIT       P2_B7
      00000083H   SFRSYM    DATA     BYTE      DPH
      000000E8H.5 SFRSYM    DATA     BIT       ADC0CN_ADINT
      000000C4H   SFRSYM    DATA     BYTE      ADC0GTH
      000000D0H.6 SFRSYM    DATA     BIT       PSW_AC
      000000DEH   SFRSYM    DATA     BYTE      CS0SE
      00000088H.5 SFRSYM    DATA     BIT       TCON_TF0
      00000098H   SFRSYM    DATA     BIT       SCON0_RI
      00000082H   SFRSYM    DATA     BYTE      DPL
      00000088H.7 SFRSYM    DATA     BIT       TCON_TF1
      00000099H   SFRSYM    DATA     BYTE      SBUF0
      000000B9H   SFRSYM    DATA     BYTE      IREF0CF
      000000C3H   SFRSYM    DATA     BYTE      ADC0GTL
      00000080H.1 SFRSYM    DATA     BIT       SCL
      00000098H.1 SFRSYM    DATA     BIT       SCON0_TI
      000000C6H   SFRSYM    DATA     BYTE      ADC0LTH
      00000088H   SFRSYM    DATA     BIT       TCON_IT0
      000000B0H.7 SFRSYM    DATA     BIT       CS0CN_CSEN
      000000EFH   SFRSYM    DATA     BYTE      RSTSRC
      000000D7H   SFRSYM    DATA     BYTE      P0MAT
      00000086H   SFRSYM    DATA     BYTE      CRC0DAT
      00000088H.2 SFRSYM    DATA     BIT       TCON_IT1
      00000098H   SFRSYM    DATA     BYTE      SCON0
      000000CFH   SFRSYM    DATA     BYTE      P1MAT
      000000DEH   SFRSYM    DATA     BYTE      CS0PM
      000000F5H   SFRSYM    DATA     BYTE      SMB0ADM
      000000C5H   SFRSYM    DATA     BYTE      ADC0LTL
      000000B8H.6 SFRSYM    DATA     BIT       IP_PSPI0
      000000D6H   SFRSYM    DATA     BYTE      IREF0CN
      000000F4H   SFRSYM    DATA     BYTE      SMB0ADR
      00000088H.4 SFRSYM    DATA     BIT       TCON_TR0
      000000ABH   SFRSYM    DATA     BYTE      CS0MX
      00000088H.6 SFRSYM    DATA     BIT       TCON_TR1
      000000C2H   SFRSYM    DATA     BYTE      SMB0DAT
      00000099H   SFRSYM    DATA     BYTE      P0DRV
      000000DDH   SFRSYM    DATA     BYTE      CS0SS
      000000C0H.5 SFRSYM    DATA     BIT       SMB0CN_STA
      000000CDH   SFRSYM    DATA     BYTE      TMR2H
      000000A1H   SFRSYM    DATA     BYTE      SPI0CFG
      0000009BH   SFRSYM    DATA     BYTE      P1DRV
      00000095H   SFRSYM    DATA     BYTE      TMR3H
      0000009DH   SFRSYM    DATA     BYTE      P2DRV
      0000009AH   SFRSYM    DATA     BYTE      CRC0CNT
      0000008EH   SFRSYM    DATA     BYTE      CKCON
      000000C8H.2 SFRSYM    DATA     BIT       TMR2CN_TR2
      000000CCH   SFRSYM    DATA     BYTE      TMR2L
LX51 LINKER/LOCATER V4.66.30.0                                                        04/26/2018  14:22:13  PAGE 16


      000000ACH   SFRSYM    DATA     BYTE      RTC0ADR
      00000094H   SFRSYM    DATA     BYTE      TMR3L
      000000BBH   SFRSYM    DATA     BYTE      ADC0PWR
      000000D8H   SFRSYM    DATA     BIT       PCA0CN_CCF0
      000000A8H.7 SFRSYM    DATA     BIT       IE_EA
      000000ADH   SFRSYM    DATA     BYTE      RTC0DAT
      000000D8H.1 SFRSYM    DATA     BIT       PCA0CN_CCF1
      000000B6H   SFRSYM    DATA     BYTE      FLSCL
      000000D8H.2 SFRSYM    DATA     BIT       PCA0CN_CCF2
      000000D0H.7 SFRSYM    DATA     BIT       PSW_CY
      000000B0H   SFRSYM    DATA     BIT       CS0CN_CSCMPF
      000000A3H   SFRSYM    DATA     BYTE      SPI0DAT
      000000BDH   SFRSYM    DATA     WORD      ADC0
      0000008EH   SFRSYM    DATA     BYTE      TOFFH
      000000C0H.3 SFRSYM    DATA     BIT       SMB0CN_ACKRQ
      000000D0H   SFRSYM    DATA     BYTE      PSW
      000000DFH   SFRSYM    DATA     BYTE      PCA0PWM
      000000E2H   SFRSYM    DATA     BYTE      REVID
      000000C0H.4 SFRSYM    DATA     BIT       SMB0CN_STO
      0000008DH   SFRSYM    DATA     BYTE      TOFFL
      000000B7H   SFRSYM    DATA     BYTE      FLKEY
      000000BAH   SFRSYM    DATA     BYTE      ADC0AC

      01000029H   BLOCK     CODE     ---       LVL=0
      01000029H   LINE      CODE     ---       #72
      01000029H   LINE      CODE     ---       #73
      01000029H   LINE      CODE     ---       #75
      ---         BLOCKEND  ---      ---       LVL=0

      0100002EH   BLOCK     CODE     ---       LVL=0
      0100002EH   LINE      CODE     ---       #80
      0100002EH   LINE      CODE     ---       #81
      0100002EH   LINE      CODE     ---       #83
      01000031H   LINE      CODE     ---       #84
      01000034H   LINE      CODE     ---       #86
      01000037H   LINE      CODE     ---       #87
      0100003AH   LINE      CODE     ---       #88
      ---         BLOCKEND  ---      ---       LVL=0

      01001286H   BLOCK     CODE     ---       LVL=0
      00000007H   SYMBOL    DATA     CHAR      c
      01001286H   LINE      CODE     ---       #90
      01001286H   LINE      CODE     ---       #91
      01001286H   LINE      CODE     ---       #92
      01001288H   LINE      CODE     ---       #93
      0100128BH   LINE      CODE     ---       #94
      0100128DH   LINE      CODE     ---       #95
      ---         BLOCKEND  ---      ---       LVL=0

      01000F55H   BLOCK     CODE     ---       LVL=0
      0000004FH   SYMBOL    DATA     ---       string
      00000052H   SYMBOL    DATA     DWORD     num
      01000F63H   BLOCK     CODE     NEAR LAB  LVL=1
      00000006H   SYMBOL    DATA     CHAR      c
      00000056H   SYMBOL    DATA     ---       s
      00000060H   SYMBOL    DATA     CHAR      j
      00000061H   SYMBOL    DATA     CHAR      i
      00000005H   SYMBOL    DATA     BYTE      len
      ---         BLOCKEND  ---      ---       LVL=1
      01000F55H   LINE      CODE     ---       #96
      01000F63H   LINE      CODE     ---       #97
      01000F63H   LINE      CODE     ---       #98
LX51 LINKER/LOCATER V4.66.30.0                                                        04/26/2018  14:22:13  PAGE 17


      01000F64H   LINE      CODE     ---       #100
      01000F66H   LINE      CODE     ---       #101
      01000F68H   LINE      CODE     ---       #102
      01000F69H   LINE      CODE     ---       #103
      01000F7DH   LINE      CODE     ---       #104
      01000F81H   LINE      CODE     ---       #105
      01000F82H   LINE      CODE     ---       #106
      01000F84H   LINE      CODE     ---       #107
      01000F8DH   LINE      CODE     ---       #108
      01000FB4H   LINE      CODE     ---       #109
      01000FD0H   LINE      CODE     ---       #110
      01000FE9H   LINE      CODE     ---       #111
      01000FFCH   LINE      CODE     ---       #112
      01000FFCH   LINE      CODE     ---       #113
      01001000H   LINE      CODE     ---       #114
      0100100CH   LINE      CODE     ---       #115
      0100100CH   LINE      CODE     ---       #116
      01001016H   LINE      CODE     ---       #117
      0100101AH   LINE      CODE     ---       #118
      ---         BLOCKEND  ---      ---       LVL=0

      01001128H   BLOCK     CODE     ---       LVL=0
      01001128H   BLOCK     CODE     NEAR LAB  LVL=1
      0000004FH   SYMBOL    DATA     LONG      ss
      ---         BLOCKEND  ---      ---       LVL=1
      01001128H   LINE      CODE     ---       #122
      01001128H   LINE      CODE     ---       #123
      01001128H   LINE      CODE     ---       #124
      01001131H   LINE      CODE     ---       #125
      01001133H   LINE      CODE     ---       #126
      01001136H   LINE      CODE     ---       #127
      01001139H   LINE      CODE     ---       #128
      0100113CH   LINE      CODE     ---       #129
      0100113FH   LINE      CODE     ---       #130
      01001155H   LINE      CODE     ---       #132
      01001170H   LINE      CODE     ---       #133
      01001172H   LINE      CODE     ---       #134
      01001175H   LINE      CODE     ---       #135
      01001178H   LINE      CODE     ---       #136
      0100117BH   LINE      CODE     ---       #137
      0100117EH   LINE      CODE     ---       #138
      01001182H   LINE      CODE     ---       #140
      ---         BLOCKEND  ---      ---       LVL=0

      0100003EH   BLOCK     CODE     ---       LVL=0
      00000076H   SYMBOL    DATA     BYTE      Addr
      00000005H   SYMBOL    DATA     BYTE      Reg
      0100003EH   LINE      CODE     ---       #143
      01000040H   LINE      CODE     ---       #144
      01000040H   LINE      CODE     ---       #145
      01000042H   LINE      CODE     ---       #146
      01000045H   LINE      CODE     ---       #147
      01000048H   LINE      CODE     ---       #148
      0100004AH   LINE      CODE     ---       #149
      0100004DH   LINE      CODE     ---       #150
      01000050H   LINE      CODE     ---       #151
      01000053H   LINE      CODE     ---       #152
      01000059H   LINE      CODE     ---       #153
      0100005CH   LINE      CODE     ---       #154
      0100005EH   LINE      CODE     ---       #156
      ---         BLOCKEND  ---      ---       LVL=0

LX51 LINKER/LOCATER V4.66.30.0                                                        04/26/2018  14:22:13  PAGE 18


      010011C7H   BLOCK     CODE     VOID      LVL=0
      ---         BLOCKEND  ---      ---       LVL=0

      010011CDH   BLOCK     CODE     ---       LVL=0
      00000007H   SYMBOL    DATA     BYTE      Addr
      00000005H   SYMBOL    DATA     BYTE      Reg
      00000003H   SYMBOL    DATA     BYTE      Dat
      010011CDH   LINE      CODE     ---       #158
      010011CDH   LINE      CODE     ---       #159
      010011CDH   LINE      CODE     ---       #160
      010011CFH   LINE      CODE     ---       #161
      010011D2H   LINE      CODE     ---       #162
      010011D4H   LINE      CODE     ---       #163
      010011D7H   LINE      CODE     ---       #164
      010011D9H   LINE      CODE     ---       #165
      010011DBH   LINE      CODE     ---       #166
      010011DEH   LINE      CODE     ---       #168
      010011E1H   LINE      CODE     ---       #171
      010011E1H   LINE      CODE     ---       #173
      ---         BLOCKEND  ---      ---       LVL=0

      01000C13H   BLOCK     CODE     ---       LVL=0
      01000C13H   BLOCK     CODE     NEAR LAB  LVL=1
      0000004FH   SYMBOL    DATA     LONG      t_fine
      00000053H   SYMBOL    DATA     LONG      calc_result
      00000004H   SYMBOL    DATA     WORD      adc
      00000057H   SYMBOL    DATA     LONG      var1
      0000005BH   SYMBOL    DATA     LONG      var2
      0000005FH   SYMBOL    DATA     LONG      var3
      00000063H   SYMBOL    DATA     WORD      par_t1
      00000065H   SYMBOL    DATA     INT       par_t2
      00000067H   SYMBOL    DATA     CHAR      par_t3
      ---         BLOCKEND  ---      ---       LVL=1
      01000C13H   LINE      CODE     ---       #174
      01000C13H   LINE      CODE     ---       #175
      01000C13H   LINE      CODE     ---       #182
      01000C19H   LINE      CODE     ---       #183
      01000C1FH   LINE      CODE     ---       #184
      01000C22H   LINE      CODE     ---       #185
      01000C41H   LINE      CODE     ---       #186
      01000C63H   LINE      CODE     ---       #187
      01000C85H   LINE      CODE     ---       #188
      01000CBFH   LINE      CODE     ---       #189
      01000CF1H   LINE      CODE     ---       #190
      01000D09H   LINE      CODE     ---       #191
      01000D34H   LINE      CODE     ---       #192
      01000D4DH   LINE      CODE     ---       #193
      01000D4DH   LINE      CODE     ---       #194
      ---         BLOCKEND  ---      ---       LVL=0

      01000835H   BLOCK     CODE     ---       LVL=0
      01000835H   BLOCK     CODE     NEAR LAB  LVL=1
      0000004FH   SYMBOL    DATA     WORD      par_h1
      00000051H   SYMBOL    DATA     WORD      par_h2
      00000053H   SYMBOL    DATA     CHAR      par_h3
      00000054H   SYMBOL    DATA     CHAR      par_h4
      00000055H   SYMBOL    DATA     CHAR      par_h5
      00000056H   SYMBOL    DATA     BYTE      par_h6
      00000057H   SYMBOL    DATA     CHAR      par_h7
      00000058H   SYMBOL    DATA     LONG      var1
      0000005CH   SYMBOL    DATA     LONG      var2
      00000060H   SYMBOL    DATA     LONG      var3
LX51 LINKER/LOCATER V4.66.30.0                                                        04/26/2018  14:22:13  PAGE 19


      00000064H   SYMBOL    DATA     LONG      var4
      00000068H   SYMBOL    DATA     LONG      var5
      0000006CH   SYMBOL    DATA     LONG      var6
      00000070H   SYMBOL    DATA     LONG      calc_result
      00000074H   SYMBOL    DATA     WORD      adc
      ---         BLOCKEND  ---      ---       LVL=1
      01000835H   LINE      CODE     ---       #195
      01000835H   LINE      CODE     ---       #196
      01000835H   LINE      CODE     ---       #198
      0100083BH   LINE      CODE     ---       #199
      01000841H   LINE      CODE     ---       #200
      01000844H   LINE      CODE     ---       #201
      01000847H   LINE      CODE     ---       #202
      0100084AH   LINE      CODE     ---       #203
      0100084DH   LINE      CODE     ---       #204
      01000850H   LINE      CODE     ---       #214
      01000871H   LINE      CODE     ---       #216
      0100089DH   LINE      CODE     ---       #221
      01000930H   LINE      CODE     ---       #224
      0100094BH   LINE      CODE     ---       #226
      0100095EH   LINE      CODE     ---       #228
      01000998H   LINE      CODE     ---       #230
      010009D2H   LINE      CODE     ---       #232
      010009F2H   LINE      CODE     ---       #234
      01000A22H   LINE      CODE     ---       #236
      01000A38H   LINE      CODE     ---       #237
      01000A46H   LINE      CODE     ---       #238
      01000A52H   LINE      CODE     ---       #239
      01000A5BH   LINE      CODE     ---       #240
      01000A75H   LINE      CODE     ---       #243
      01000A77H   LINE      CODE     ---       #245
      ---         BLOCKEND  ---      ---       LVL=0

      01000589H   BLOCK     CODE     ---       LVL=0
      01000589H   BLOCK     CODE     NEAR LAB  LVL=1
      0000004FH   SYMBOL    DATA     FLOAT     value1
      00000053H   SYMBOL    DATA     FLOAT     value2
      00000057H   SYMBOL    DATA     FLOAT     var1
      0000005BH   SYMBOL    DATA     FLOAT     var2
      0000005FH   SYMBOL    DATA     FLOAT     var3
      00000063H   SYMBOL    DATA     WORD      range_sw_err
      00000065H   SYMBOL    DATA     LONG      gas_res_adc
      00000069H   SYMBOL    DATA     LONG      calc_gas_res
      ---         BLOCKEND  ---      ---       LVL=1
      01000589H   LINE      CODE     ---       #246
      01000589H   LINE      CODE     ---       #247
      01000589H   LINE      CODE     ---       #255
      010005A4H   LINE      CODE     ---       #256
      010005ADH   LINE      CODE     ---       #263
      010005E5H   LINE      CODE     ---       #265
      010005F9H   LINE      CODE     ---       #269
      0100061AH   LINE      CODE     ---       #270
      0100061AH   LINE      CODE     ---       #271
      01000622H   LINE      CODE     ---       #272
      01000638H   LINE      CODE     ---       #273
      01000638H   LINE      CODE     ---       #274
      01000641H   LINE      CODE     ---       #275
      01000657H   LINE      CODE     ---       #276
      01000657H   LINE      CODE     ---       #277
      01000663H   LINE      CODE     ---       #278
      01000679H   LINE      CODE     ---       #279
      01000679H   LINE      CODE     ---       #280
LX51 LINKER/LOCATER V4.66.30.0                                                        04/26/2018  14:22:13  PAGE 20


      01000682H   LINE      CODE     ---       #281
      01000684H   LINE      CODE     ---       #282
      0100068DH   LINE      CODE     ---       #283
      0100068DH   LINE      CODE     ---       #285
      010006A1H   LINE      CODE     ---       #286
      010006A1H   LINE      CODE     ---       #287
      010006ADH   LINE      CODE     ---       #288
      010006C3H   LINE      CODE     ---       #289
      010006C3H   LINE      CODE     ---       #290
      010006CEH   LINE      CODE     ---       #291
      010006E4H   LINE      CODE     ---       #292
      010006E4H   LINE      CODE     ---       #293
      010006F0H   LINE      CODE     ---       #294
      01000706H   LINE      CODE     ---       #295
      01000706H   LINE      CODE     ---       #296
      01000712H   LINE      CODE     ---       #297
      01000714H   LINE      CODE     ---       #298
      0100071DH   LINE      CODE     ---       #299
      0100071DH   LINE      CODE     ---       #300
      01000742H   LINE      CODE     ---       #301
      01000771H   LINE      CODE     ---       #302
      01000795H   LINE      CODE     ---       #303
      0100082CH   LINE      CODE     ---       #307
      01000834H   LINE      CODE     ---       #309
      ---         BLOCKEND  ---      ---       LVL=0

      01000A78H   BLOCK     CODE     ---       LVL=0
      01000A78H   BLOCK     CODE     NEAR LAB  LVL=1
      0000004FH   SYMBOL    DATA     LONG      var1
      00000053H   SYMBOL    DATA     LONG      var2
      00000057H   SYMBOL    DATA     LONG      var3
      0000005BH   SYMBOL    DATA     LONG      var4
      0000005FH   SYMBOL    DATA     LONG      var5
      00000063H   SYMBOL    DATA     WORD      res_heat_range
      00000065H   SYMBOL    DATA     CHAR      res_heat_val
      00000066H   SYMBOL    DATA     BYTE      par_g1
      00000067H   SYMBOL    DATA     WORD      par_g2
      00000069H   SYMBOL    DATA     BYTE      par_g3
      0000006AH   SYMBOL    DATA     BYTE      heatr_res
      0000006BH   SYMBOL    DATA     LONG      heatr_res_x100
      0000006FH   SYMBOL    DATA     INT       temp
      ---         BLOCKEND  ---      ---       LVL=1
      01000A78H   LINE      CODE     ---       #310
      01000A78H   LINE      CODE     ---       #311
      01000A78H   LINE      CODE     ---       #319
      01000A93H   LINE      CODE     ---       #320
      01000A9CH   LINE      CODE     ---       #321
      01000A9FH   LINE      CODE     ---       #322
      01000AA5H   LINE      CODE     ---       #323
      01000AA8H   LINE      CODE     ---       #328
      01000AAEH   LINE      CODE     ---       #332
      01000ABBH   LINE      CODE     ---       #333
      01000AC1H   LINE      CODE     ---       #335
      01000AEDH   LINE      CODE     ---       #336
      01000B55H   LINE      CODE     ---       #337
      01000B7AH   LINE      CODE     ---       #338
      01000B9BH   LINE      CODE     ---       #339
      01000BC0H   LINE      CODE     ---       #340
      01000BF4H   LINE      CODE     ---       #341
      01000C10H   LINE      CODE     ---       #343
      01000C12H   LINE      CODE     ---       #344
      ---         BLOCKEND  ---      ---       LVL=0
LX51 LINKER/LOCATER V4.66.30.0                                                        04/26/2018  14:22:13  PAGE 21



      01000E64H   BLOCK     CODE     ---       LVL=0
      01000E64H   BLOCK     CODE     NEAR LAB  LVL=1
      00000007H   SYMBOL    DATA     BYTE      i
      ---         BLOCKEND  ---      ---       LVL=1
      01000E64H   LINE      CODE     ---       #362
      01000E64H   LINE      CODE     ---       #363
      01000E64H   LINE      CODE     ---       #367
      01000E67H   LINE      CODE     ---       #370
      01000E6AH   LINE      CODE     ---       #371
      01000E6AH   LINE      CODE     ---       #374
      01000E6DH   LINE      CODE     ---       #375
      01000E6FH   LINE      CODE     ---       #376
      01000E75H   LINE      CODE     ---       #377
      01000E77H   LINE      CODE     ---       #378
      01000E7AH   LINE      CODE     ---       #380
      01000E80H   LINE      CODE     ---       #381
      01000E83H   LINE      CODE     ---       #382
      01000E85H   LINE      CODE     ---       #384
      01000E88H   LINE      CODE     ---       #385
      01000E8BH   LINE      CODE     ---       #389
      01000E94H   LINE      CODE     ---       #390
      01000E9DH   LINE      CODE     ---       #391
      01000EA0H   LINE      CODE     ---       #393
      01000EA9H   LINE      CODE     ---       #412
      01000EA9H   LINE      CODE     ---       #413
      01000EA9H   LINE      CODE     ---       #415
      01000EACH   LINE      CODE     ---       #416
      01000EACH   LINE      CODE     ---       #417
      01000EAEH   LINE      CODE     ---       #418
      01000EB1H   LINE      CODE     ---       #419
      01000EC0H   LINE      CODE     ---       #420
      01000ECFH   LINE      CODE     ---       #421
      01000EDBH   LINE      CODE     ---       #422
      01000EE6H   LINE      CODE     ---       #423
      01000EEFH   LINE      CODE     ---       #424
      01000EFBH   LINE      CODE     ---       #425
      01000F0CH   LINE      CODE     ---       #426
      01000F1DH   LINE      CODE     ---       #428
      01000F2EH   LINE      CODE     ---       #429
      01000F3EH   LINE      CODE     ---       #432
      01000F4FH   LINE      CODE     ---       #433
      01000F52H   LINE      CODE     ---       #434
      ---         BLOCKEND  ---      ---       LVL=0

      0100127CH   BLOCK     CODE     ---       LVL=0
      0100127CH   LINE      CODE     ---       #447
      0100127CH   LINE      CODE     ---       #448
      0100127CH   LINE      CODE     ---       #449
      0100127FH   LINE      CODE     ---       #450
      01001281H   LINE      CODE     ---       #451
      01001283H   LINE      CODE     ---       #452
      01001285H   LINE      CODE     ---       #453
      ---         BLOCKEND  ---      ---       LVL=0

      0100124CH   BLOCK     CODE     ---       LVL=0
      0100124CH   LINE      CODE     ---       #454
      0100124CH   LINE      CODE     ---       #455
      0100124CH   LINE      CODE     ---       #456
      0100124FH   LINE      CODE     ---       #457
      01001251H   LINE      CODE     ---       #458
      01001253H   LINE      CODE     ---       #460
LX51 LINKER/LOCATER V4.66.30.0                                                        04/26/2018  14:22:13  PAGE 22


      01001255H   LINE      CODE     ---       #462
      01001258H   LINE      CODE     ---       #463
      ---         BLOCKEND  ---      ---       LVL=0

      010010AEH   BLOCK     CODE     ---       LVL=0
      010010AEH   LINE      CODE     ---       #465
      010010CBH   LINE      CODE     ---       #468
      010010DFH   LINE      CODE     ---       #469
      010010DFH   LINE      CODE     ---       #471
      010010E1H   LINE      CODE     ---       #473
      010010E3H   LINE      CODE     ---       #475
      010010EFH   LINE      CODE     ---       #476
      010010F1H   LINE      CODE     ---       #477
      0100110AH   LINE      CODE     ---       #478
      0100110AH   LINE      CODE     ---       #479
      0100110DH   LINE      CODE     ---       #482
      ---         BLOCKEND  ---      ---       LVL=0

      ---         MODULE    ---      ---       INITDEVICE
      01001229H   PUBLIC    CODE     ---       enter_Mode2_from_DefaultMode
      010011FBH   PUBLIC    CODE     ---       TIMER16_2_enter_DefaultMode_from_RESET
      01001271H   PUBLIC    CODE     ---       TIMER01_0_enter_DefaultMode_from_RESET
      010012B2H   PUBLIC    CODE     ---       UART_0_enter_DefaultMode_from_RESET
      010012A3H   PUBLIC    CODE     ---       INTERRUPT_0_enter_Mode2_from_DefaultMode
      010012AEH   PUBLIC    CODE     ---       SMBUS_0_enter_Mode2_from_DefaultMode
      01001259H   PUBLIC    CODE     ---       TIMER_SETUP_0_enter_Mode2_from_DefaultMode
      010011E2H   PUBLIC    CODE     ---       TIMER16_3_enter_Mode2_from_DefaultMode
      01001266H   PUBLIC    CODE     ---       TIMER00_0_enter_Mode2_from_DefaultMode
      0100129CH   PUBLIC    CODE     ---       PBCFG_0_enter_Mode2_from_DefaultMode
      01001295H   PUBLIC    CODE     ---       PORTS_1_enter_Mode2_from_DefaultMode
      010012AAH   PUBLIC    CODE     ---       CLOCK_0_enter_DefaultMode_from_RESET
      0100006FH   PUBLIC    CODE     ---       HFOSC_0_enter_DefaultMode_from_RESET
      01000025H   PUBLIC    CODE     ---       VREG_0_enter_DefaultMode_from_RESET
      0100128EH   PUBLIC    CODE     ---       PCA_0_enter_DefaultMode_from_RESET
      01001214H   PUBLIC    CODE     ---       enter_DefaultMode_from_RESET
      000000A2H   SFRSYM    DATA     BYTE      SPI0CKR
      00000080H   SFRSYM    DATA     BYTE      P0
      000000D0H.2 SFRSYM    DATA     BIT       PSW_OV
      000000D8H.7 SFRSYM    DATA     BIT       PCA0CN_CF
      00000090H   SFRSYM    DATA     BYTE      P1
      000000F8H.4 SFRSYM    DATA     BIT       SPI0CN_RXOVRN
      000000A0H   SFRSYM    DATA     BYTE      P2
      00000097H   SFRSYM    DATA     BYTE      ADC0CF
      000000C8H   SFRSYM    DATA     BIT       TMR2CN_T2XCLK0
      000000C8H.1 SFRSYM    DATA     BIT       TMR2CN_T2XCLK1
      000000E8H.7 SFRSYM    DATA     BIT       ADC0CN_ADEN
      000000F9H   SFRSYM    DATA     WORD      PCA0
      000000AEH   SFRSYM    DATA     BYTE      RTC0KEY
      000000E6H   SFRSYM    DATA     BYTE      EIE1
      000000E7H   SFRSYM    DATA     BYTE      EIE2
      0000008FH   SFRSYM    DATA     BYTE      PSCTL
      000000E4H   SFRSYM    DATA     BYTE      IT01CF
      000000E3H   SFRSYM    DATA     BYTE      DERIVID
      000000AFH   SFRSYM    DATA     BYTE      CS0MD1
      000000A7H   SFRSYM    DATA     BYTE      SFRPAGE
      000000F3H   SFRSYM    DATA     BYTE      CS0MD2
      000000E8H   SFRSYM    DATA     BYTE      ADC0CN
      000000A4H   SFRSYM    DATA     BYTE      P0MDOUT
      000000F3H   SFRSYM    DATA     BYTE      CS0MD3
      000000D8H.6 SFRSYM    DATA     BIT       PCA0CN_CR
      000000A5H   SFRSYM    DATA     BYTE      P1MDOUT
      000000CBH   SFRSYM    DATA     BYTE      TMR2RLH
LX51 LINKER/LOCATER V4.66.30.0                                                        04/26/2018  14:22:13  PAGE 23


      000000A6H   SFRSYM    DATA     BYTE      P2MDOUT
      000000A8H   SFRSYM    DATA     BYTE      IE
      00000093H   SFRSYM    DATA     BYTE      TMR3RLH
      000000F6H   SFRSYM    DATA     BYTE      EIP1
      000000F8H   SFRSYM    DATA     BIT       SPI0CN_SPIEN
      000000F7H   SFRSYM    DATA     BYTE      EIP2
      00000098H.2 SFRSYM    DATA     BIT       SCON0_RB8
      000000CAH   SFRSYM    DATA     BYTE      TMR2RLL
      000000FCH   SFRSYM    DATA     BYTE      PCA0CPH0
      00000092H   SFRSYM    DATA     BYTE      TMR3RLL
      000000EAH   SFRSYM    DATA     BYTE      PCA0CPH1
      00000098H.3 SFRSYM    DATA     BIT       SCON0_TB8
      000000F0H   SFRSYM    DATA     BIT       B_B0
      00000082H   SFRSYM    DATA     WORD      DP
      000000ECH   SFRSYM    DATA     BYTE      PCA0CPH2
      000000B0H.4 SFRSYM    DATA     BIT       CS0CN_CSBUSY
      000000F0H.1 SFRSYM    DATA     BIT       B_B1
      000000E8H.6 SFRSYM    DATA     BIT       ADC0CN_ADBMEN
      000000C3H   SFRSYM    DATA     WORD      ADC0GT
      000000F0H.2 SFRSYM    DATA     BIT       B_B2
      000000FBH   SFRSYM    DATA     BYTE      PCA0CPL0
      000000F0H.3 SFRSYM    DATA     BIT       B_B3
      000000D9H   SFRSYM    DATA     BYTE      PCA0MD
      000000DAH   SFRSYM    DATA     BYTE      PCA0CPM0
      000000E9H   SFRSYM    DATA     BYTE      PCA0CPL1
      000000D8H   SFRSYM    DATA     BYTE      PCA0CN
      000000F0H.4 SFRSYM    DATA     BIT       B_B4
      000000DBH   SFRSYM    DATA     BYTE      PCA0CPM1
      000000EBH   SFRSYM    DATA     BYTE      PCA0CPL2
      000000F0H.5 SFRSYM    DATA     BIT       B_B5
      000000DCH   SFRSYM    DATA     BYTE      PCA0CPM2
      000000B8H   SFRSYM    DATA     BYTE      IP
      000000BCH   SFRSYM    DATA     BYTE      ADC0TK
      000000F0H.6 SFRSYM    DATA     BIT       B_B6
      000000C5H   SFRSYM    DATA     WORD      ADC0LT
      00000098H.5 SFRSYM    DATA     BIT       SCON0_MCE
      000000F0H.7 SFRSYM    DATA     BIT       B_B7
      00000084H   SFRSYM    DATA     BYTE      CRC0CN
      000000E1H   SFRSYM    DATA     BYTE      XBR0
      000000C1H   SFRSYM    DATA     BYTE      SMB0CF
      000000E2H   SFRSYM    DATA     BYTE      XBR1
      000000D2H   SFRSYM    DATA     BYTE      CS0SCAN0
      000000E3H   SFRSYM    DATA     BYTE      XBR2
      000000D3H   SFRSYM    DATA     BYTE      CS0SCAN1
      00000096H   SFRSYM    DATA     BYTE      ADC0MX
      000000C0H.2 SFRSYM    DATA     BIT       SMB0CN_ARBLOST
      000000E0H   SFRSYM    DATA     BIT       ACC_ACC0
      000000D1H   SFRSYM    DATA     BYTE      REF0CN
      000000F8H.1 SFRSYM    DATA     BIT       SPI0CN_TXBMT
      000000E0H.1 SFRSYM    DATA     BIT       ACC_ACC1
      000000C9H   SFRSYM    DATA     BYTE      REG0CN
      00000085H   SFRSYM    DATA     BYTE      CRC0IN
      000000C0H   SFRSYM    DATA     BIT       SMB0CN_SI
      000000E0H.2 SFRSYM    DATA     BIT       ACC_ACC2
      000000E0H.3 SFRSYM    DATA     BIT       ACC_ACC3
      00000081H   SFRSYM    DATA     BYTE      SP
      000000E0H.4 SFRSYM    DATA     BIT       ACC_ACC4
      000000E0H.5 SFRSYM    DATA     BIT       ACC_ACC5
      000000C0H   SFRSYM    DATA     BYTE      SMB0CN
      000000E0H.6 SFRSYM    DATA     BIT       ACC_ACC6
      000000CCH   SFRSYM    DATA     WORD      TMR2
      000000E0H.7 SFRSYM    DATA     BIT       ACC_ACC7
LX51 LINKER/LOCATER V4.66.30.0                                                        04/26/2018  14:22:13  PAGE 24


      00000094H   SFRSYM    DATA     WORD      TMR3
      000000FFH   SFRSYM    DATA     BYTE      VDM0CN
      000000F1H   SFRSYM    DATA     BYTE      P0MDIN
      0000009DH   SFRSYM    DATA     BYTE      CPT0MD
      0000009BH   SFRSYM    DATA     BYTE      CPT0CN
      00000098H.4 SFRSYM    DATA     BIT       SCON0_REN
      000000F2H   SFRSYM    DATA     BYTE      P1MDIN
      000000FEH   SFRSYM    DATA     BYTE      CS0THH
      000000B5H   SFRSYM    DATA     BYTE      PMU0CF
      000000C8H.7 SFRSYM    DATA     BIT       TMR2CN_TF2H
      000000C8H.3 SFRSYM    DATA     BIT       TMR2CN_T2SPLIT
      000000C7H   SFRSYM    DATA     BYTE      P0MASK
      000000F8H   SFRSYM    DATA     BYTE      SPI0CN
      000000BFH   SFRSYM    DATA     BYTE      P1MASK
      000000FDH   SFRSYM    DATA     BYTE      CS0THL
      000000D0H.3 SFRSYM    DATA     BIT       PSW_RS0
      00000087H   SFRSYM    DATA     BYTE      PCON
      000000C8H.6 SFRSYM    DATA     BIT       TMR2CN_TF2L
      000000D0H.4 SFRSYM    DATA     BIT       PSW_RS1
      000000E8H   SFRSYM    DATA     BIT       ADC0CN_ADCM0
      000000B0H.1 SFRSYM    DATA     BIT       CS0CN_CSPME
      000000E8H.1 SFRSYM    DATA     BIT       ADC0CN_ADCM1
      000000E8H.2 SFRSYM    DATA     BIT       ADC0CN_ADCM2
      000000E8H.3 SFRSYM    DATA     BIT       ADC0CN_ADWINT
      00000089H   SFRSYM    DATA     BYTE      TMOD
      00000088H   SFRSYM    DATA     BYTE      TCON
      000000B5H   SFRSYM    DATA     BYTE      PMU0MD
      000000E8H.4 SFRSYM    DATA     BIT       ADC0CN_ADBUSY
      000000CEH   SFRSYM    DATA     BYTE      PMU0FL
      0000009CH   SFRSYM    DATA     BYTE      CRC0FLIP
      000000F8H.5 SFRSYM    DATA     BIT       SPI0CN_MODF
      000000D0H   SFRSYM    DATA     BIT       PSW_PARITY
      000000A8H.4 SFRSYM    DATA     BIT       IE_ES0
      000000A8H.1 SFRSYM    DATA     BIT       IE_ET0
      000000B0H.6 SFRSYM    DATA     BIT       CS0CN_CSEOS
      000000C8H   SFRSYM    DATA     BYTE      TMR2CN
      000000A8H.3 SFRSYM    DATA     BIT       IE_ET1
      00000091H   SFRSYM    DATA     BYTE      TMR3CN
      000000D4H   SFRSYM    DATA     BYTE      P0SKIP
      000000A8H.5 SFRSYM    DATA     BIT       IE_ET2
      000000D5H   SFRSYM    DATA     BYTE      P1SKIP
      000000A8H   SFRSYM    DATA     BIT       IE_EX0
      000000B0H.5 SFRSYM    DATA     BIT       CS0CN_CSINT
      000000E5H   SFRSYM    DATA     BYTE      FLWR
      000000C8H.4 SFRSYM    DATA     BIT       TMR2CN_TF2CEN
      000000A8H.2 SFRSYM    DATA     BIT       IE_EX1
      0000009FH   SFRSYM    DATA     BYTE      CPT0MX
      00000098H.7 SFRSYM    DATA     BIT       SCON0_SMODE
      000000B3H   SFRSYM    DATA     BYTE      OSCICL
      000000A9H   SFRSYM    DATA     BYTE      CLKSEL
      000000B2H   SFRSYM    DATA     BYTE      OSCICN
      000000F0H   SFRSYM    DATA     BYTE      B
      000000BEH   SFRSYM    DATA     BYTE      ADC0H
      000000F8H.7 SFRSYM    DATA     BIT       SPI0CN_SPIF
      0000009EH   SFRSYM    DATA     BYTE      CRC0AUTO
      000000B0H.3 SFRSYM    DATA     BIT       CS0CN_CSCMPEN
      000000CAH   SFRSYM    DATA     WORD      TMR2RL
      000000BDH   SFRSYM    DATA     BYTE      ADC0L
      000000C8H.5 SFRSYM    DATA     BIT       TMR2CN_TF2LEN
      000000F8H.6 SFRSYM    DATA     BIT       SPI0CN_WCOL
      00000092H   SFRSYM    DATA     WORD      TMR3RL
      000000F8H.2 SFRSYM    DATA     BIT       SPI0CN_NSSMD0
LX51 LINKER/LOCATER V4.66.30.0                                                        04/26/2018  14:22:13  PAGE 25


      000000E0H   SFRSYM    DATA     BYTE      ACC
      000000F8H.3 SFRSYM    DATA     BIT       SPI0CN_NSSMD1
      000000FBH   SFRSYM    DATA     WORD      PCA0CP0
      000000E9H   SFRSYM    DATA     WORD      PCA0CP1
      000000EBH   SFRSYM    DATA     WORD      PCA0CP2
      0000008CH   SFRSYM    DATA     BYTE      TH0
      000000B8H.4 SFRSYM    DATA     BIT       IP_PS0
      0000008DH   SFRSYM    DATA     BYTE      TH1
      000000FAH   SFRSYM    DATA     BYTE      PCA0H
      000000B8H.1 SFRSYM    DATA     BIT       IP_PT0
      000000B8H.3 SFRSYM    DATA     BIT       IP_PT1
      000000B8H.5 SFRSYM    DATA     BIT       IP_PT2
      0000008AH   SFRSYM    DATA     BYTE      TL0
      000000B1H   SFRSYM    DATA     BYTE      OSCXCN
      000000AAH   SFRSYM    DATA     BYTE      CS0CF
      000000D0H.5 SFRSYM    DATA     BIT       PSW_F0
      000000A8H.6 SFRSYM    DATA     BIT       IE_ESPI0
      0000008BH   SFRSYM    DATA     BYTE      TL1
      000000F9H   SFRSYM    DATA     BYTE      PCA0L
      000000D0H.1 SFRSYM    DATA     BIT       PSW_F1
      00000080H   SFRSYM    DATA     BIT       P0_B0
      000000B8H   SFRSYM    DATA     BIT       IP_PX0
      00000090H   SFRSYM    DATA     BIT       P1_B0
      00000080H.1 SFRSYM    DATA     BIT       P0_B1
      000000B8H.2 SFRSYM    DATA     BIT       IP_PX1
      000000EEH   SFRSYM    DATA     BYTE      CS0DH
      00000088H.1 SFRSYM    DATA     BIT       TCON_IE0
      000000C0H.7 SFRSYM    DATA     BIT       SMB0CN_MASTER
      00000090H.1 SFRSYM    DATA     BIT       P1_B1
      00000080H.2 SFRSYM    DATA     BIT       P0_B2
      00000088H.3 SFRSYM    DATA     BIT       TCON_IE1
      000000C0H.1 SFRSYM    DATA     BIT       SMB0CN_ACK
      00000090H.2 SFRSYM    DATA     BIT       P1_B2
      00000080H.3 SFRSYM    DATA     BIT       P0_B3
      00000090H.3 SFRSYM    DATA     BIT       P1_B3
      00000080H.4 SFRSYM    DATA     BIT       P0_B4
      00000090H.4 SFRSYM    DATA     BIT       P1_B4
      00000080H.5 SFRSYM    DATA     BIT       P0_B5
      000000EDH   SFRSYM    DATA     BYTE      CS0DL
      00000090H.5 SFRSYM    DATA     BIT       P1_B5
      00000080H.6 SFRSYM    DATA     BIT       P0_B6
      000000B0H   SFRSYM    DATA     BYTE      CS0CN
      000000C0H.6 SFRSYM    DATA     BIT       SMB0CN_TXMODE
      00000090H.6 SFRSYM    DATA     BIT       P1_B6
      00000080H.7 SFRSYM    DATA     BIT       P0_B7
      00000090H.7 SFRSYM    DATA     BIT       P1_B7
      000000A0H.7 SFRSYM    DATA     BIT       P2_B7
      00000083H   SFRSYM    DATA     BYTE      DPH
      000000E8H.5 SFRSYM    DATA     BIT       ADC0CN_ADINT
      000000C4H   SFRSYM    DATA     BYTE      ADC0GTH
      000000D0H.6 SFRSYM    DATA     BIT       PSW_AC
      000000DEH   SFRSYM    DATA     BYTE      CS0SE
      00000088H.5 SFRSYM    DATA     BIT       TCON_TF0
      00000098H   SFRSYM    DATA     BIT       SCON0_RI
      00000082H   SFRSYM    DATA     BYTE      DPL
      00000088H.7 SFRSYM    DATA     BIT       TCON_TF1
      00000099H   SFRSYM    DATA     BYTE      SBUF0
      000000B9H   SFRSYM    DATA     BYTE      IREF0CF
      000000C3H   SFRSYM    DATA     BYTE      ADC0GTL
      00000098H.1 SFRSYM    DATA     BIT       SCON0_TI
      000000C6H   SFRSYM    DATA     BYTE      ADC0LTH
      00000088H   SFRSYM    DATA     BIT       TCON_IT0
LX51 LINKER/LOCATER V4.66.30.0                                                        04/26/2018  14:22:13  PAGE 26


      000000B0H.7 SFRSYM    DATA     BIT       CS0CN_CSEN
      000000EFH   SFRSYM    DATA     BYTE      RSTSRC
      000000D7H   SFRSYM    DATA     BYTE      P0MAT
      00000086H   SFRSYM    DATA     BYTE      CRC0DAT
      00000088H.2 SFRSYM    DATA     BIT       TCON_IT1
      00000098H   SFRSYM    DATA     BYTE      SCON0
      000000CFH   SFRSYM    DATA     BYTE      P1MAT
      000000DEH   SFRSYM    DATA     BYTE      CS0PM
      000000F5H   SFRSYM    DATA     BYTE      SMB0ADM
      000000C5H   SFRSYM    DATA     BYTE      ADC0LTL
      000000B8H.6 SFRSYM    DATA     BIT       IP_PSPI0
      000000D6H   SFRSYM    DATA     BYTE      IREF0CN
      000000F4H   SFRSYM    DATA     BYTE      SMB0ADR
      00000088H.4 SFRSYM    DATA     BIT       TCON_TR0
      000000ABH   SFRSYM    DATA     BYTE      CS0MX
      00000088H.6 SFRSYM    DATA     BIT       TCON_TR1
      000000C2H   SFRSYM    DATA     BYTE      SMB0DAT
      00000099H   SFRSYM    DATA     BYTE      P0DRV
      000000DDH   SFRSYM    DATA     BYTE      CS0SS
      000000C0H.5 SFRSYM    DATA     BIT       SMB0CN_STA
      000000CDH   SFRSYM    DATA     BYTE      TMR2H
      000000A1H   SFRSYM    DATA     BYTE      SPI0CFG
      0000009BH   SFRSYM    DATA     BYTE      P1DRV
      00000095H   SFRSYM    DATA     BYTE      TMR3H
      0000009DH   SFRSYM    DATA     BYTE      P2DRV
      0000009AH   SFRSYM    DATA     BYTE      CRC0CNT
      0000008EH   SFRSYM    DATA     BYTE      CKCON
      000000C8H.2 SFRSYM    DATA     BIT       TMR2CN_TR2
      000000CCH   SFRSYM    DATA     BYTE      TMR2L
      000000ACH   SFRSYM    DATA     BYTE      RTC0ADR
      00000094H   SFRSYM    DATA     BYTE      TMR3L
      000000BBH   SFRSYM    DATA     BYTE      ADC0PWR
      000000D8H   SFRSYM    DATA     BIT       PCA0CN_CCF0
      000000A8H.7 SFRSYM    DATA     BIT       IE_EA
      000000ADH   SFRSYM    DATA     BYTE      RTC0DAT
      000000D8H.1 SFRSYM    DATA     BIT       PCA0CN_CCF1
      000000B6H   SFRSYM    DATA     BYTE      FLSCL
      000000D8H.2 SFRSYM    DATA     BIT       PCA0CN_CCF2
      000000D0H.7 SFRSYM    DATA     BIT       PSW_CY
      000000B0H   SFRSYM    DATA     BIT       CS0CN_CSCMPF
      000000A3H   SFRSYM    DATA     BYTE      SPI0DAT
      000000BDH   SFRSYM    DATA     WORD      ADC0
      0000008EH   SFRSYM    DATA     BYTE      TOFFH
      000000C0H.3 SFRSYM    DATA     BIT       SMB0CN_ACKRQ
      000000D0H   SFRSYM    DATA     BYTE      PSW
      000000DFH   SFRSYM    DATA     BYTE      PCA0PWM
      000000E2H   SFRSYM    DATA     BYTE      REVID
      000000C0H.4 SFRSYM    DATA     BIT       SMB0CN_STO
      0000008DH   SFRSYM    DATA     BYTE      TOFFL
      000000B7H   SFRSYM    DATA     BYTE      FLKEY
      000000BAH   SFRSYM    DATA     BYTE      ADC0AC

      01001214H   BLOCK     CODE     ---       LVL=0
      01001214H   LINE      CODE     ---       #20
      01001214H   LINE      CODE     ---       #22
      01001217H   LINE      CODE     ---       #23
      0100121AH   LINE      CODE     ---       #24
      0100121DH   LINE      CODE     ---       #25
      01001220H   LINE      CODE     ---       #26
      01001223H   LINE      CODE     ---       #27
      01001226H   LINE      CODE     ---       #28
      ---         BLOCKEND  ---      ---       LVL=0
LX51 LINKER/LOCATER V4.66.30.0                                                        04/26/2018  14:22:13  PAGE 27



      0100128EH   BLOCK     CODE     ---       LVL=0
      0100128EH   LINE      CODE     ---       #36
      0100128EH   LINE      CODE     ---       #40
      01001291H   LINE      CODE     ---       #41
      01001294H   LINE      CODE     ---       #47
      ---         BLOCKEND  ---      ---       LVL=0

      01000025H   BLOCK     CODE     ---       LVL=0
      01000025H   LINE      CODE     ---       #52
      01000025H   LINE      CODE     ---       #58
      01000028H   LINE      CODE     ---       #62
      ---         BLOCKEND  ---      ---       LVL=0

      0100006FH   BLOCK     CODE     ---       LVL=0
      0100006FH   LINE      CODE     ---       #67
      0100006FH   LINE      CODE     ---       #76
      01000072H   LINE      CODE     ---       #80
      ---         BLOCKEND  ---      ---       LVL=0

      010012AAH   BLOCK     CODE     ---       LVL=0
      010012AAH   LINE      CODE     ---       #85
      010012AAH   LINE      CODE     ---       #93
      010012ADH   LINE      CODE     ---       #97
      ---         BLOCKEND  ---      ---       LVL=0

      01001295H   BLOCK     CODE     ---       LVL=0
      01001295H   LINE      CODE     ---       #102
      01001295H   LINE      CODE     ---       #105
      01001298H   LINE      CODE     ---       #106
      0100129BH   LINE      CODE     ---       #127
      ---         BLOCKEND  ---      ---       LVL=0

      0100129CH   BLOCK     CODE     ---       LVL=0
      0100129CH   LINE      CODE     ---       #132
      0100129CH   LINE      CODE     ---       #140
      0100129FH   LINE      CODE     ---       #156
      010012A2H   LINE      CODE     ---       #164
      ---         BLOCKEND  ---      ---       LVL=0

      01001266H   BLOCK     CODE     ---       LVL=0
      01001266H   BLOCK     CODE     NEAR LAB  LVL=1
      00000007H   SYMBOL    DATA     BYTE      TCON_save
      ---         BLOCKEND  ---      ---       LVL=1
      01001266H   LINE      CODE     ---       #169
      01001266H   LINE      CODE     ---       #172
      01001268H   LINE      CODE     ---       #174
      0100126BH   LINE      CODE     ---       #191
      0100126EH   LINE      CODE     ---       #196
      01001270H   LINE      CODE     ---       #201
      ---         BLOCKEND  ---      ---       LVL=0

      010011E2H   BLOCK     CODE     ---       LVL=0
      010011E2H   BLOCK     CODE     NEAR LAB  LVL=1
      00000007H   SYMBOL    DATA     BYTE      TMR3CN_TR3_save
      ---         BLOCKEND  ---      ---       LVL=1
      010011E2H   LINE      CODE     ---       #206
      010011E2H   LINE      CODE     ---       #209
      010011E6H   LINE      CODE     ---       #211
      010011E9H   LINE      CODE     ---       #221
      010011ECH   LINE      CODE     ---       #228
      010011EFH   LINE      CODE     ---       #235
LX51 LINKER/LOCATER V4.66.30.0                                                        04/26/2018  14:22:13  PAGE 28


      010011F2H   LINE      CODE     ---       #242
      010011F5H   LINE      CODE     ---       #249
      010011F8H   LINE      CODE     ---       #254
      010011FAH   LINE      CODE     ---       #258
      ---         BLOCKEND  ---      ---       LVL=0

      01001259H   BLOCK     CODE     ---       LVL=0
      01001259H   LINE      CODE     ---       #263
      01001259H   LINE      CODE     ---       #281
      0100125CH   LINE      CODE     ---       #285
      0100125FH   LINE      CODE     ---       #294
      01001262H   LINE      CODE     ---       #295
      01001265H   LINE      CODE     ---       #299
      ---         BLOCKEND  ---      ---       LVL=0

      010012AEH   BLOCK     CODE     ---       LVL=0
      010012AEH   LINE      CODE     ---       #304
      010012AEH   LINE      CODE     ---       #319
      010012B1H   LINE      CODE     ---       #330
      ---         BLOCKEND  ---      ---       LVL=0

      010012A3H   BLOCK     CODE     ---       LVL=0
      010012A3H   LINE      CODE     ---       #335
      010012A3H   LINE      CODE     ---       #353
      010012A6H   LINE      CODE     ---       #378
      010012A9H   LINE      CODE     ---       #392
      ---         BLOCKEND  ---      ---       LVL=0

      010012B2H   BLOCK     CODE     ---       LVL=0
      010012B2H   LINE      CODE     ---       #393
      010012B2H   LINE      CODE     ---       #398
      010012B5H   LINE      CODE     ---       #402
      ---         BLOCKEND  ---      ---       LVL=0

      01001271H   BLOCK     CODE     ---       LVL=0
      01001271H   BLOCK     CODE     NEAR LAB  LVL=1
      00000007H   SYMBOL    DATA     BYTE      TCON_save
      ---         BLOCKEND  ---      ---       LVL=1
      01001271H   LINE      CODE     ---       #403
      01001271H   LINE      CODE     ---       #406
      01001273H   LINE      CODE     ---       #408
      01001276H   LINE      CODE     ---       #422
      01001279H   LINE      CODE     ---       #434
      0100127BH   LINE      CODE     ---       #439
      ---         BLOCKEND  ---      ---       LVL=0

      010011FBH   BLOCK     CODE     ---       LVL=0
      010011FBH   BLOCK     CODE     NEAR LAB  LVL=1
      00000007H   SYMBOL    DATA     BYTE      TMR2CN_TR2_save
      ---         BLOCKEND  ---      ---       LVL=1
      010011FBH   LINE      CODE     ---       #440
      010011FBH   LINE      CODE     ---       #441
      010011FFH   LINE      CODE     ---       #443
      01001202H   LINE      CODE     ---       #453
      01001205H   LINE      CODE     ---       #460
      01001208H   LINE      CODE     ---       #467
      0100120BH   LINE      CODE     ---       #474
      0100120EH   LINE      CODE     ---       #481
      01001211H   LINE      CODE     ---       #486
      01001213H   LINE      CODE     ---       #491
      ---         BLOCKEND  ---      ---       LVL=0

LX51 LINKER/LOCATER V4.66.30.0                                                        04/26/2018  14:22:13  PAGE 29


      01001229H   BLOCK     CODE     ---       LVL=0
      01001229H   LINE      CODE     ---       #497
      01001229H   LINE      CODE     ---       #499
      0100122CH   LINE      CODE     ---       #500
      0100122FH   LINE      CODE     ---       #501
      01001232H   LINE      CODE     ---       #502
      01001235H   LINE      CODE     ---       #503
      01001238H   LINE      CODE     ---       #504
      0100123BH   LINE      CODE     ---       #505
      ---         BLOCKEND  ---      ---       LVL=0

      ---         MODULE    ---      ---       INTERRUPTS
      00000008H   PUBLIC    DATA     BYTE      ADDR_SEND
      0100123EH   PUBLIC    CODE     ---       TIMER3_ISR
      01000D4EH   PUBLIC    CODE     ---       SMBUS0_ISR
      000000A2H   SFRSYM    DATA     BYTE      SPI0CKR
      00000080H   SFRSYM    DATA     BYTE      P0
      000000D0H.2 SFRSYM    DATA     BIT       PSW_OV
      000000D8H.7 SFRSYM    DATA     BIT       PCA0CN_CF
      00000090H   SFRSYM    DATA     BYTE      P1
      000000F8H.4 SFRSYM    DATA     BIT       SPI0CN_RXOVRN
      000000A0H   SFRSYM    DATA     BYTE      P2
      00000097H   SFRSYM    DATA     BYTE      ADC0CF
      000000C8H   SFRSYM    DATA     BIT       TMR2CN_T2XCLK0
      000000C8H.1 SFRSYM    DATA     BIT       TMR2CN_T2XCLK1
      000000E8H.7 SFRSYM    DATA     BIT       ADC0CN_ADEN
      000000F9H   SFRSYM    DATA     WORD      PCA0
      000000AEH   SFRSYM    DATA     BYTE      RTC0KEY
      000000E6H   SFRSYM    DATA     BYTE      EIE1
      000000E7H   SFRSYM    DATA     BYTE      EIE2
      0000008FH   SFRSYM    DATA     BYTE      PSCTL
      000000E4H   SFRSYM    DATA     BYTE      IT01CF
      000000E3H   SFRSYM    DATA     BYTE      DERIVID
      000000AFH   SFRSYM    DATA     BYTE      CS0MD1
      000000A7H   SFRSYM    DATA     BYTE      SFRPAGE
      000000F3H   SFRSYM    DATA     BYTE      CS0MD2
      000000E8H   SFRSYM    DATA     BYTE      ADC0CN
      000000A4H   SFRSYM    DATA     BYTE      P0MDOUT
      000000F3H   SFRSYM    DATA     BYTE      CS0MD3
      000000D8H.6 SFRSYM    DATA     BIT       PCA0CN_CR
      000000A5H   SFRSYM    DATA     BYTE      P1MDOUT
      000000CBH   SFRSYM    DATA     BYTE      TMR2RLH
      000000A6H   SFRSYM    DATA     BYTE      P2MDOUT
      000000A8H   SFRSYM    DATA     BYTE      IE
      00000093H   SFRSYM    DATA     BYTE      TMR3RLH
      000000F6H   SFRSYM    DATA     BYTE      EIP1
      000000F8H   SFRSYM    DATA     BIT       SPI0CN_SPIEN
      000000F7H   SFRSYM    DATA     BYTE      EIP2
      00000098H.2 SFRSYM    DATA     BIT       SCON0_RB8
      000000CAH   SFRSYM    DATA     BYTE      TMR2RLL
      000000FCH   SFRSYM    DATA     BYTE      PCA0CPH0
      00000092H   SFRSYM    DATA     BYTE      TMR3RLL
      000000EAH   SFRSYM    DATA     BYTE      PCA0CPH1
      00000098H.3 SFRSYM    DATA     BIT       SCON0_TB8
      000000F0H   SFRSYM    DATA     BIT       B_B0
      00000082H   SFRSYM    DATA     WORD      DP
      000000ECH   SFRSYM    DATA     BYTE      PCA0CPH2
      00000090H.3 SFRSYM    DATA     BIT       YELLOW_LED
      000000B0H.4 SFRSYM    DATA     BIT       CS0CN_CSBUSY
      000000F0H.1 SFRSYM    DATA     BIT       B_B1
      000000E8H.6 SFRSYM    DATA     BIT       ADC0CN_ADBMEN
      000000C3H   SFRSYM    DATA     WORD      ADC0GT
LX51 LINKER/LOCATER V4.66.30.0                                                        04/26/2018  14:22:13  PAGE 30


      000000F0H.2 SFRSYM    DATA     BIT       B_B2
      000000FBH   SFRSYM    DATA     BYTE      PCA0CPL0
      000000F0H.3 SFRSYM    DATA     BIT       B_B3
      000000D9H   SFRSYM    DATA     BYTE      PCA0MD
      000000DAH   SFRSYM    DATA     BYTE      PCA0CPM0
      000000E9H   SFRSYM    DATA     BYTE      PCA0CPL1
      000000D8H   SFRSYM    DATA     BYTE      PCA0CN
      000000F0H.4 SFRSYM    DATA     BIT       B_B4
      000000DBH   SFRSYM    DATA     BYTE      PCA0CPM1
      000000EBH   SFRSYM    DATA     BYTE      PCA0CPL2
      000000F0H.5 SFRSYM    DATA     BIT       B_B5
      000000DCH   SFRSYM    DATA     BYTE      PCA0CPM2
      000000B8H   SFRSYM    DATA     BYTE      IP
      000000BCH   SFRSYM    DATA     BYTE      ADC0TK
      000000F0H.6 SFRSYM    DATA     BIT       B_B6
      000000C5H   SFRSYM    DATA     WORD      ADC0LT
      00000098H.5 SFRSYM    DATA     BIT       SCON0_MCE
      000000F0H.7 SFRSYM    DATA     BIT       B_B7
      00000084H   SFRSYM    DATA     BYTE      CRC0CN
      000000E1H   SFRSYM    DATA     BYTE      XBR0
      000000C1H   SFRSYM    DATA     BYTE      SMB0CF
      000000E2H   SFRSYM    DATA     BYTE      XBR1
      000000D2H   SFRSYM    DATA     BYTE      CS0SCAN0
      000000E3H   SFRSYM    DATA     BYTE      XBR2
      000000D3H   SFRSYM    DATA     BYTE      CS0SCAN1
      00000096H   SFRSYM    DATA     BYTE      ADC0MX
      000000C0H.2 SFRSYM    DATA     BIT       SMB0CN_ARBLOST
      000000E0H   SFRSYM    DATA     BIT       ACC_ACC0
      000000D1H   SFRSYM    DATA     BYTE      REF0CN
      000000F8H.1 SFRSYM    DATA     BIT       SPI0CN_TXBMT
      000000E0H.1 SFRSYM    DATA     BIT       ACC_ACC1
      000000C9H   SFRSYM    DATA     BYTE      REG0CN
      00000085H   SFRSYM    DATA     BYTE      CRC0IN
      000000C0H   SFRSYM    DATA     BIT       SMB0CN_SI
      000000E0H.2 SFRSYM    DATA     BIT       ACC_ACC2
      000000E0H.3 SFRSYM    DATA     BIT       ACC_ACC3
      00000081H   SFRSYM    DATA     BYTE      SP
      000000E0H.4 SFRSYM    DATA     BIT       ACC_ACC4
      000000E0H.5 SFRSYM    DATA     BIT       ACC_ACC5
      000000C0H   SFRSYM    DATA     BYTE      SMB0CN
      000000E0H.6 SFRSYM    DATA     BIT       ACC_ACC6
      000000CCH   SFRSYM    DATA     WORD      TMR2
      000000E0H.7 SFRSYM    DATA     BIT       ACC_ACC7
      00000094H   SFRSYM    DATA     WORD      TMR3
      000000FFH   SFRSYM    DATA     BYTE      VDM0CN
      000000F1H   SFRSYM    DATA     BYTE      P0MDIN
      0000009DH   SFRSYM    DATA     BYTE      CPT0MD
      0000009BH   SFRSYM    DATA     BYTE      CPT0CN
      00000098H.4 SFRSYM    DATA     BIT       SCON0_REN
      000000F2H   SFRSYM    DATA     BYTE      P1MDIN
      000000FEH   SFRSYM    DATA     BYTE      CS0THH
      000000B5H   SFRSYM    DATA     BYTE      PMU0CF
      000000C8H.7 SFRSYM    DATA     BIT       TMR2CN_TF2H
      000000C8H.3 SFRSYM    DATA     BIT       TMR2CN_T2SPLIT
      000000C7H   SFRSYM    DATA     BYTE      P0MASK
      000000F8H   SFRSYM    DATA     BYTE      SPI0CN
      000000BFH   SFRSYM    DATA     BYTE      P1MASK
      000000FDH   SFRSYM    DATA     BYTE      CS0THL
      000000D0H.3 SFRSYM    DATA     BIT       PSW_RS0
      00000087H   SFRSYM    DATA     BYTE      PCON
      000000C8H.6 SFRSYM    DATA     BIT       TMR2CN_TF2L
      000000D0H.4 SFRSYM    DATA     BIT       PSW_RS1
LX51 LINKER/LOCATER V4.66.30.0                                                        04/26/2018  14:22:13  PAGE 31


      000000E8H   SFRSYM    DATA     BIT       ADC0CN_ADCM0
      000000B0H.1 SFRSYM    DATA     BIT       CS0CN_CSPME
      000000E8H.1 SFRSYM    DATA     BIT       ADC0CN_ADCM1
      000000E8H.2 SFRSYM    DATA     BIT       ADC0CN_ADCM2
      000000E8H.3 SFRSYM    DATA     BIT       ADC0CN_ADWINT
      00000089H   SFRSYM    DATA     BYTE      TMOD
      00000088H   SFRSYM    DATA     BYTE      TCON
      000000B5H   SFRSYM    DATA     BYTE      PMU0MD
      000000E8H.4 SFRSYM    DATA     BIT       ADC0CN_ADBUSY
      000000CEH   SFRSYM    DATA     BYTE      PMU0FL
      0000009CH   SFRSYM    DATA     BYTE      CRC0FLIP
      000000F8H.5 SFRSYM    DATA     BIT       SPI0CN_MODF
      000000D0H   SFRSYM    DATA     BIT       PSW_PARITY
      000000A8H.4 SFRSYM    DATA     BIT       IE_ES0
      000000A8H.1 SFRSYM    DATA     BIT       IE_ET0
      000000B0H.6 SFRSYM    DATA     BIT       CS0CN_CSEOS
      000000C8H   SFRSYM    DATA     BYTE      TMR2CN
      000000A8H.3 SFRSYM    DATA     BIT       IE_ET1
      00000091H   SFRSYM    DATA     BYTE      TMR3CN
      000000D4H   SFRSYM    DATA     BYTE      P0SKIP
      000000A8H.5 SFRSYM    DATA     BIT       IE_ET2
      000000D5H   SFRSYM    DATA     BYTE      P1SKIP
      000000A8H   SFRSYM    DATA     BIT       IE_EX0
      000000B0H.5 SFRSYM    DATA     BIT       CS0CN_CSINT
      000000E5H   SFRSYM    DATA     BYTE      FLWR
      000000C8H.4 SFRSYM    DATA     BIT       TMR2CN_TF2CEN
      000000A8H.2 SFRSYM    DATA     BIT       IE_EX1
      0000009FH   SFRSYM    DATA     BYTE      CPT0MX
      00000098H.7 SFRSYM    DATA     BIT       SCON0_SMODE
      000000B3H   SFRSYM    DATA     BYTE      OSCICL
      000000A9H   SFRSYM    DATA     BYTE      CLKSEL
      000000B2H   SFRSYM    DATA     BYTE      OSCICN
      000000F0H   SFRSYM    DATA     BYTE      B
      000000BEH   SFRSYM    DATA     BYTE      ADC0H
      000000F8H.7 SFRSYM    DATA     BIT       SPI0CN_SPIF
      0000009EH   SFRSYM    DATA     BYTE      CRC0AUTO
      000000B0H.3 SFRSYM    DATA     BIT       CS0CN_CSCMPEN
      000000CAH   SFRSYM    DATA     WORD      TMR2RL
      000000BDH   SFRSYM    DATA     BYTE      ADC0L
      000000C8H.5 SFRSYM    DATA     BIT       TMR2CN_TF2LEN
      000000F8H.6 SFRSYM    DATA     BIT       SPI0CN_WCOL
      00000092H   SFRSYM    DATA     WORD      TMR3RL
      000000F8H.2 SFRSYM    DATA     BIT       SPI0CN_NSSMD0
      000000E0H   SFRSYM    DATA     BYTE      ACC
      000000F8H.3 SFRSYM    DATA     BIT       SPI0CN_NSSMD1
      000000FBH   SFRSYM    DATA     WORD      PCA0CP0
      000000E9H   SFRSYM    DATA     WORD      PCA0CP1
      000000EBH   SFRSYM    DATA     WORD      PCA0CP2
      0000008CH   SFRSYM    DATA     BYTE      TH0
      000000B8H.4 SFRSYM    DATA     BIT       IP_PS0
      0000008DH   SFRSYM    DATA     BYTE      TH1
      000000FAH   SFRSYM    DATA     BYTE      PCA0H
      000000B8H.1 SFRSYM    DATA     BIT       IP_PT0
      000000B8H.3 SFRSYM    DATA     BIT       IP_PT1
      000000B8H.5 SFRSYM    DATA     BIT       IP_PT2
      0000008AH   SFRSYM    DATA     BYTE      TL0
      000000B1H   SFRSYM    DATA     BYTE      OSCXCN
      000000AAH   SFRSYM    DATA     BYTE      CS0CF
      000000D0H.5 SFRSYM    DATA     BIT       PSW_F0
      000000A8H.6 SFRSYM    DATA     BIT       IE_ESPI0
      0000008BH   SFRSYM    DATA     BYTE      TL1
      000000F9H   SFRSYM    DATA     BYTE      PCA0L
LX51 LINKER/LOCATER V4.66.30.0                                                        04/26/2018  14:22:13  PAGE 32


      000000D0H.1 SFRSYM    DATA     BIT       PSW_F1
      00000080H   SFRSYM    DATA     BIT       P0_B0
      000000B8H   SFRSYM    DATA     BIT       IP_PX0
      00000090H   SFRSYM    DATA     BIT       P1_B0
      00000080H.1 SFRSYM    DATA     BIT       P0_B1
      000000B8H.2 SFRSYM    DATA     BIT       IP_PX1
      000000EEH   SFRSYM    DATA     BYTE      CS0DH
      00000088H.1 SFRSYM    DATA     BIT       TCON_IE0
      000000C0H.7 SFRSYM    DATA     BIT       SMB0CN_MASTER
      00000090H.1 SFRSYM    DATA     BIT       P1_B1
      00000080H.2 SFRSYM    DATA     BIT       P0_B2
      00000088H.3 SFRSYM    DATA     BIT       TCON_IE1
      000000C0H.1 SFRSYM    DATA     BIT       SMB0CN_ACK
      00000090H.2 SFRSYM    DATA     BIT       P1_B2
      00000080H.3 SFRSYM    DATA     BIT       P0_B3
      00000090H.3 SFRSYM    DATA     BIT       P1_B3
      00000080H.4 SFRSYM    DATA     BIT       P0_B4
      00000090H.4 SFRSYM    DATA     BIT       P1_B4
      00000080H.5 SFRSYM    DATA     BIT       P0_B5
      000000EDH   SFRSYM    DATA     BYTE      CS0DL
      00000090H.5 SFRSYM    DATA     BIT       P1_B5
      00000080H.6 SFRSYM    DATA     BIT       P0_B6
      000000B0H   SFRSYM    DATA     BYTE      CS0CN
      000000C0H.6 SFRSYM    DATA     BIT       SMB0CN_TXMODE
      00000090H.6 SFRSYM    DATA     BIT       P1_B6
      00000080H.7 SFRSYM    DATA     BIT       P0_B7
      00000090H.7 SFRSYM    DATA     BIT       P1_B7
      000000A0H.7 SFRSYM    DATA     BIT       P2_B7
      00000083H   SFRSYM    DATA     BYTE      DPH
      000000E8H.5 SFRSYM    DATA     BIT       ADC0CN_ADINT
      000000C4H   SFRSYM    DATA     BYTE      ADC0GTH
      000000D0H.6 SFRSYM    DATA     BIT       PSW_AC
      000000DEH   SFRSYM    DATA     BYTE      CS0SE
      00000088H.5 SFRSYM    DATA     BIT       TCON_TF0
      00000098H   SFRSYM    DATA     BIT       SCON0_RI
      00000082H   SFRSYM    DATA     BYTE      DPL
      00000088H.7 SFRSYM    DATA     BIT       TCON_TF1
      00000099H   SFRSYM    DATA     BYTE      SBUF0
      000000B9H   SFRSYM    DATA     BYTE      IREF0CF
      000000C3H   SFRSYM    DATA     BYTE      ADC0GTL
      00000098H.1 SFRSYM    DATA     BIT       SCON0_TI
      000000C6H   SFRSYM    DATA     BYTE      ADC0LTH
      00000088H   SFRSYM    DATA     BIT       TCON_IT0
      000000B0H.7 SFRSYM    DATA     BIT       CS0CN_CSEN
      000000EFH   SFRSYM    DATA     BYTE      RSTSRC
      000000D7H   SFRSYM    DATA     BYTE      P0MAT
      00000086H   SFRSYM    DATA     BYTE      CRC0DAT
      00000088H.2 SFRSYM    DATA     BIT       TCON_IT1
      00000098H   SFRSYM    DATA     BYTE      SCON0
      000000CFH   SFRSYM    DATA     BYTE      P1MAT
      000000DEH   SFRSYM    DATA     BYTE      CS0PM
      000000F5H   SFRSYM    DATA     BYTE      SMB0ADM
      000000C5H   SFRSYM    DATA     BYTE      ADC0LTL
      000000B8H.6 SFRSYM    DATA     BIT       IP_PSPI0
      000000D6H   SFRSYM    DATA     BYTE      IREF0CN
      000000F4H   SFRSYM    DATA     BYTE      SMB0ADR
      00000088H.4 SFRSYM    DATA     BIT       TCON_TR0
      000000ABH   SFRSYM    DATA     BYTE      CS0MX
      00000088H.6 SFRSYM    DATA     BIT       TCON_TR1
      000000C2H   SFRSYM    DATA     BYTE      SMB0DAT
      00000099H   SFRSYM    DATA     BYTE      P0DRV
      000000DDH   SFRSYM    DATA     BYTE      CS0SS
LX51 LINKER/LOCATER V4.66.30.0                                                        04/26/2018  14:22:13  PAGE 33


      000000C0H.5 SFRSYM    DATA     BIT       SMB0CN_STA
      000000CDH   SFRSYM    DATA     BYTE      TMR2H
      000000A1H   SFRSYM    DATA     BYTE      SPI0CFG
      0000009BH   SFRSYM    DATA     BYTE      P1DRV
      00000095H   SFRSYM    DATA     BYTE      TMR3H
      0000009DH   SFRSYM    DATA     BYTE      P2DRV
      0000009AH   SFRSYM    DATA     BYTE      CRC0CNT
      0000008EH   SFRSYM    DATA     BYTE      CKCON
      000000C8H.2 SFRSYM    DATA     BIT       TMR2CN_TR2
      000000CCH   SFRSYM    DATA     BYTE      TMR2L
      000000ACH   SFRSYM    DATA     BYTE      RTC0ADR
      00000094H   SFRSYM    DATA     BYTE      TMR3L
      000000BBH   SFRSYM    DATA     BYTE      ADC0PWR
      000000D8H   SFRSYM    DATA     BIT       PCA0CN_CCF0
      000000A8H.7 SFRSYM    DATA     BIT       IE_EA
      000000ADH   SFRSYM    DATA     BYTE      RTC0DAT
      000000D8H.1 SFRSYM    DATA     BIT       PCA0CN_CCF1
      000000B6H   SFRSYM    DATA     BYTE      FLSCL
      000000D8H.2 SFRSYM    DATA     BIT       PCA0CN_CCF2
      000000D0H.7 SFRSYM    DATA     BIT       PSW_CY
      000000B0H   SFRSYM    DATA     BIT       CS0CN_CSCMPF
      000000A3H   SFRSYM    DATA     BYTE      SPI0DAT
      000000BDH   SFRSYM    DATA     WORD      ADC0
      0000008EH   SFRSYM    DATA     BYTE      TOFFH
      000000C0H.3 SFRSYM    DATA     BIT       SMB0CN_ACKRQ
      000000D0H   SFRSYM    DATA     BYTE      PSW
      000000DFH   SFRSYM    DATA     BYTE      PCA0PWM
      000000E2H   SFRSYM    DATA     BYTE      REVID
      000000C0H.4 SFRSYM    DATA     BIT       SMB0CN_STO
      0000008DH   SFRSYM    DATA     BYTE      TOFFL
      000000B7H   SFRSYM    DATA     BYTE      FLKEY
      000000BAH   SFRSYM    DATA     BYTE      ADC0AC

      01000D4EH   BLOCK     CODE     ---       LVL=0
      01000D59H   BLOCK     CODE     NEAR LAB  LVL=1
      00000020H.4 SYMBOL    BIT      BIT       FAIL
      ---         BLOCKEND  ---      ---       LVL=1
      01000D4EH   LINE      CODE     ---       #47
      01000D59H   LINE      CODE     ---       #49
      01000D5BH   LINE      CODE     ---       #54
      01000D61H   LINE      CODE     ---       #55
      01000D61H   LINE      CODE     ---       #57
      01000D77H   LINE      CODE     ---       #58
      01000D77H   LINE      CODE     ---       #60
      01000D77H   LINE      CODE     ---       #62
      01000D7AH   LINE      CODE     ---       #63
      01000D7DH   LINE      CODE     ---       #65
      01000D83H   LINE      CODE     ---       #66
      01000D85H   LINE      CODE     ---       #67
      01000D88H   LINE      CODE     ---       #68
      01000D8BH   LINE      CODE     ---       #70
      01000D8EH   LINE      CODE     ---       #73
      01000D8EH   LINE      CODE     ---       #74
      01000D91H   LINE      CODE     ---       #75
      01000D91H   LINE      CODE     ---       #76
      01000D95H   LINE      CODE     ---       #77
      01000D95H   LINE      CODE     ---       #82
      01000D98H   LINE      CODE     ---       #83
      01000D98H   LINE      CODE     ---       #84
      01000D9EH   LINE      CODE     ---       #85
      01000D9EH   LINE      CODE     ---       #86
      01000DA5H   LINE      CODE     ---       #87
LX51 LINKER/LOCATER V4.66.30.0                                                        04/26/2018  14:22:13  PAGE 34


      01000DAFH   LINE      CODE     ---       #88
      01000DB1H   LINE      CODE     ---       #89
      01000DB4H   LINE      CODE     ---       #90
      01000DB7H   LINE      CODE     ---       #91
      01000DB7H   LINE      CODE     ---       #92
      01000DB7H   LINE      CODE     ---       #93
      01000DBAH   LINE      CODE     ---       #94
      01000DC0H   LINE      CODE     ---       #95
      01000DC3H   LINE      CODE     ---       #96
      01000DC3H   LINE      CODE     ---       #98
      01000DC8H   LINE      CODE     ---       #99
      01000DCBH   LINE      CODE     ---       #100
      01000DCBH   LINE      CODE     ---       #101
      01000DD0H   LINE      CODE     ---       #102
      01000DD3H   LINE      CODE     ---       #103
      01000DD3H   LINE      CODE     ---       #105
      01000DD3H   LINE      CODE     ---       #106
      01000DD8H   LINE      CODE     ---       #107
      01000DDBH   LINE      CODE     ---       #108
      01000DDDH   LINE      CODE     ---       #109
      01000DE2H   LINE      CODE     ---       #110
      01000DE5H   LINE      CODE     ---       #113
      01000DE5H   LINE      CODE     ---       #114
      01000DE9H   LINE      CODE     ---       #115
      01000DEBH   LINE      CODE     ---       #117
      01000DEDH   LINE      CODE     ---       #119
      01000DEDH   LINE      CODE     ---       #120
      01000DEDH   LINE      CODE     ---       #124
      01000DEDH   LINE      CODE     ---       #126
      01000DEDH   LINE      CODE     ---       #128
      01000DF2H   LINE      CODE     ---       #129
      01000DF4H   LINE      CODE     ---       #130
      01000DF6H   LINE      CODE     ---       #131
      01000DF6H   LINE      CODE     ---       #132
      01000DF8H   LINE      CODE     ---       #134
      01000DF8H   LINE      CODE     ---       #135
      01000DFAH   LINE      CODE     ---       #136
      01000DFCH   LINE      CODE     ---       #137
      01000DFCH   LINE      CODE     ---       #138
      01000DFEH   LINE      CODE     ---       #141
      01000DFEH   LINE      CODE     ---       #142
      01000E01H   LINE      CODE     ---       #143
      01000E01H   LINE      CODE     ---       #144
      01000E08H   LINE      CODE     ---       #145
      01000E08H   LINE      CODE     ---       #146
      01000E0DH   LINE      CODE     ---       #147
      01000E15H   LINE      CODE     ---       #148
      01000E1CH   LINE      CODE     ---       #149
      01000E23H   LINE      CODE     ---       #150
      01000E23H   LINE      CODE     ---       #152
      01000E23H   LINE      CODE     ---       #153
      01000E25H   LINE      CODE     ---       #154
      01000E27H   LINE      CODE     ---       #155
      01000E29H   LINE      CODE     ---       #156
      01000E2BH   LINE      CODE     ---       #157
      01000E2DH   LINE      CODE     ---       #158
      01000E2FH   LINE      CODE     ---       #159
      01000E2FH   LINE      CODE     ---       #161
      01000E31H   LINE      CODE     ---       #162
      01000E34H   LINE      CODE     ---       #163
      01000E36H   LINE      CODE     ---       #164
      01000E38H   LINE      CODE     ---       #165
LX51 LINKER/LOCATER V4.66.30.0                                                        04/26/2018  14:22:13  PAGE 35


      01000E3AH   LINE      CODE     ---       #167
      01000E3CH   LINE      CODE     ---       #168
      01000E3EH   LINE      CODE     ---       #169
      01000E3EH   LINE      CODE     ---       #170
      01000E40H   LINE      CODE     ---       #172
      01000E40H   LINE      CODE     ---       #173
      01000E42H   LINE      CODE     ---       #175
      01000E44H   LINE      CODE     ---       #177
      01000E44H   LINE      CODE     ---       #178
      01000E44H   LINE      CODE     ---       #180
      01000E44H   LINE      CODE     ---       #182
      01000E46H   LINE      CODE     ---       #183
      01000E46H   LINE      CODE     ---       #185
      01000E49H   LINE      CODE     ---       #186
      01000E49H   LINE      CODE     ---       #187
      01000E4CH   LINE      CODE     ---       #188
      01000E4FH   LINE      CODE     ---       #189
      01000E51H   LINE      CODE     ---       #190
      01000E53H   LINE      CODE     ---       #191
      01000E55H   LINE      CODE     ---       #193
      01000E57H   LINE      CODE     ---       #195
      01000E59H   LINE      CODE     ---       #197
      01000E59H   LINE      CODE     ---       #199
      01000E5BH   LINE      CODE     ---       #200
      ---         BLOCKEND  ---      ---       LVL=0

      0100123EH   BLOCK     CODE     ---       LVL=0
      0100123EH   LINE      CODE     ---       #212
      0100123EH   LINE      CODE     ---       #214
      01001241H   LINE      CODE     ---       #215
      01001244H   LINE      CODE     ---       #216
      01001247H   LINE      CODE     ---       #217
      01001249H   LINE      CODE     ---       #218
      0100124BH   LINE      CODE     ---       #219
      ---         BLOCKEND  ---      ---       LVL=0

      ---         MODULE    ---      ---       ?C_STARTUP
      01000000H   PUBLIC    CODE     NEAR LAB  ?C_STARTUP
      000000E0H   SFRSYM    DATA     BYTE      ACC
      000000F0H   SFRSYM    DATA     BYTE      B
      00000083H   SFRSYM    DATA     BYTE      DPH
      00000082H   SFRSYM    DATA     BYTE      DPL
      000000A0H   SFRSYM    DATA     BYTE      PPAGE_SFR
      00000081H   SFRSYM    DATA     BYTE      SP
      00000000H   SYMBOL    NUMBER   ---       IBPSTACK
      00000100H   SYMBOL    NUMBER   ---       IBPSTACKTOP
      00000080H   SYMBOL    NUMBER   ---       IDATALEN
      01001025H   SYMBOL    CODE     NEAR LAB  IDATALOOP
      00000000H   SYMBOL    NUMBER   ---       PBPSTACK
      00000100H   SYMBOL    NUMBER   ---       PBPSTACKTOP
      00000000H   SYMBOL    NUMBER   ---       PDATALEN
      00000000H   SYMBOL    NUMBER   ---       PDATASTART
      00000000H   SYMBOL    NUMBER   ---       PPAGE
      00000000H   SYMBOL    NUMBER   ---       PPAGEENABLE
      0100101FH   SYMBOL    CODE     NEAR LAB  STARTUP1
      00000000H   SYMBOL    NUMBER   ---       XBPSTACK
      00010000H   SYMBOL    NUMBER   ---       XBPSTACKTOP
      00000000H   SYMBOL    NUMBER   ---       XDATALEN
      00000000H   SYMBOL    NUMBER   ---       XDATASTART

      01000000H   BLOCK     CODE     NEAR LAB  LVL=0
      01000000H   LINE      CODE     ---       #126
LX51 LINKER/LOCATER V4.66.30.0                                                        04/26/2018  14:22:13  PAGE 36


      ---         BLOCKEND  ---      ---       LVL=0

      0100101FH   BLOCK     CODE     NEAR LAB  LVL=0
      0100101FH   LINE      CODE     ---       #134
      01001022H   LINE      CODE     ---       #138
      01001024H   LINE      CODE     ---       #139
      01001025H   LINE      CODE     ---       #140
      01001026H   LINE      CODE     ---       #141
      01001028H   LINE      CODE     ---       #190
      0100102BH   LINE      CODE     ---       #201
      ---         BLOCKEND  ---      ---       LVL=0

      ---         MODULE    ---      ---       ?C?FPADD
      0100007DH   PUBLIC    CODE     ---       ?C?FPADD
      01000079H   PUBLIC    CODE     ---       ?C?FPSUB

      ---         MODULE    ---      ---       ?C?FPMUL
      0100016EH   PUBLIC    CODE     ---       ?C?FPMUL

      ---         MODULE    ---      ---       ?C?FPDIV
      01000277H   PUBLIC    CODE     ---       ?C?FPDIV

      ---         MODULE    ---      ---       ?C?FCAST
      0100031EH   PUBLIC    CODE     ---       ?C?FCASTC
      01000319H   PUBLIC    CODE     ---       ?C?FCASTI
      01000314H   PUBLIC    CODE     ---       ?C?FCASTL

      ---         MODULE    ---      ---       ?C?CASTF
      01000352H   PUBLIC    CODE     ---       ?C?CASTF

      ---         MODULE    ---      ---       ?C?FPGETOPN
      01000389H   PUBLIC    CODE     ---       ?C?FPGETOPN2
      010003BEH   PUBLIC    CODE     ---       ?C?FPNANRESULT
      010003C8H   PUBLIC    CODE     ---       ?C?FPOVERFLOW
      010003A0H   PUBLIC    CODE     ---       ?C?FPRESULT
      010003B4H   PUBLIC    CODE     ---       ?C?FPRESULT2
      010003C5H   PUBLIC    CODE     ---       ?C?FPUNDERFLOW

      ---         MODULE    ---      ---       ?C_INIT
      01001069H   PUBLIC    CODE     ---       ?C_START

      ---         MODULE    ---      ---       ?C?CLDPTR
      010003D3H   PUBLIC    CODE     ---       ?C?CLDPTR

      ---         MODULE    ---      ---       ?C?CSTPTR
      010003ECH   PUBLIC    CODE     ---       ?C?CSTPTR

      ---         MODULE    ---      ---       ?C?IMUL
      010003FEH   PUBLIC    CODE     ---       ?C?IMUL

      ---         MODULE    ---      ---       ?C?LMUL
      01000410H   PUBLIC    CODE     ---       ?C?LMUL

      ---         MODULE    ---      ---       ?C?ULDIV
      0100049BH   PUBLIC    CODE     ---       ?C?ULDIV

      ---         MODULE    ---      ---       ?C?SLDIV
      01001183H   PUBLIC    CODE     ---       ?C?SLDIV

      ---         MODULE    ---      ---       ?C?LNEG
      0100052DH   PUBLIC    CODE     ---       ?C?LNEG

LX51 LINKER/LOCATER V4.66.30.0                                                        04/26/2018  14:22:13  PAGE 37


      ---         MODULE    ---      ---       ?C?SLCMP
      0100053BH   PUBLIC    CODE     ---       ?C?SLCMP

      ---         MODULE    ---      ---       ?C?ULCMP
      01000551H   PUBLIC    CODE     ---       ?C?ULCMP

      ---         MODULE    ---      ---       ?C?SLSHR
      01000562H   PUBLIC    CODE     ---       ?C?SLSHR

      ---         MODULE    ---      ---       ?C?LSHL
      01000576H   PUBLIC    CODE     ---       ?C?LSHL

Program Size: data=96.5 xdata=1 const=0 code=4789
LX51 RUN COMPLETE.  0 WARNING(S),  0 ERROR(S)
