LX51 LINKER/LOCATER V4.66.30.0                                                          04/17/2018  10:08:45  PAGE 1


LX51 LINKER/LOCATER V4.66.30.0, INVOKED BY:
C:\SILICONLABS\SIMPLICITYSTUDIO\V4\DEVELOPER\TOOLCHAINS\KEIL_8051\9.53\BIN\LX51.EXE ./src/F99x_SMBus_Master.OBJ, ./src/I
>> nitDevice.OBJ, ./src/Interrupts.OBJ, ./src/SILABS_STARTUP.OBJ TO F99X-98X_SMBUS_MASTER.OMF.CRBUILD REMOVEUNUSED PRINT
>>  (.\F99x-98x_SMBus_Master.m51) PAGEWIDTH (120) PAGELENGTH (65) CLASSES (ECODE (C:0X0-C:0X1FFE), HCONST (C:0X0-C:0X1FF
>> E), XDATA (X:0X0-X:0XFF), HDATA (X:0X0-X:0XFF))


CPU MODE:     8051 MODE
MEMORY MODEL: SMALL


INPUT MODULES INCLUDED:
  ./src/F99x_SMBus_Master.OBJ (F99X_SMBUS_MASTER)
         COMMENT TYPE 0: C51 V9.53.0.0
  ./src/InitDevice.OBJ (INITDEVICE)
         COMMENT TYPE 0: C51 V9.53.0.0
  ./src/Interrupts.OBJ (INTERRUPTS)
         COMMENT TYPE 0: C51 V9.53.0.0
  ./src/SILABS_STARTUP.OBJ (?C_STARTUP)
         COMMENT TYPE 0: AX51 V3.12.0.0
  C:\SILICONLABS\SIMPLICITYSTUDIO\V4\DEVELOPER\TOOLCHAINS\KEIL_8051\9.53\LIB\C51S.LIB (?C_INIT)
         COMMENT TYPE 1: A51 / ASM51 Assembler
  C:\SILICONLABS\SIMPLICITYSTUDIO\V4\DEVELOPER\TOOLCHAINS\KEIL_8051\9.53\LIB\C51S.LIB (?C?CLDPTR)
         COMMENT TYPE 1: A51 / ASM51 Assembler
  C:\SILICONLABS\SIMPLICITYSTUDIO\V4\DEVELOPER\TOOLCHAINS\KEIL_8051\9.53\LIB\C51S.LIB (?C?CSTPTR)
         COMMENT TYPE 1: A51 / ASM51 Assembler
  C:\SILICONLABS\SIMPLICITYSTUDIO\V4\DEVELOPER\TOOLCHAINS\KEIL_8051\9.53\LIB\C51S.LIB (?C?IMUL)
         COMMENT TYPE 1: A51 / ASM51 Assembler
  C:\SILICONLABS\SIMPLICITYSTUDIO\V4\DEVELOPER\TOOLCHAINS\KEIL_8051\9.53\LIB\C51S.LIB (?C?LMUL)
         COMMENT TYPE 1: A51 / ASM51 Assembler
  C:\SILICONLABS\SIMPLICITYSTUDIO\V4\DEVELOPER\TOOLCHAINS\KEIL_8051\9.53\LIB\C51S.LIB (?C?ULDIV)
         COMMENT TYPE 1: A51 / ASM51 Assembler
  C:\SILICONLABS\SIMPLICITYSTUDIO\V4\DEVELOPER\TOOLCHAINS\KEIL_8051\9.53\LIB\C51S.LIB (?C?SLDIV)
         COMMENT TYPE 1: A51 / ASM51 Assembler
  C:\SILICONLABS\SIMPLICITYSTUDIO\V4\DEVELOPER\TOOLCHAINS\KEIL_8051\9.53\LIB\C51S.LIB (?C?SLCMP)
         COMMENT TYPE 1: A51 / ASM51 Assembler
  C:\SILICONLABS\SIMPLICITYSTUDIO\V4\DEVELOPER\TOOLCHAINS\KEIL_8051\9.53\LIB\C51S.LIB (?C?ULCMP)
         COMMENT TYPE 1: A51 / ASM51 Assembler
  C:\SILICONLABS\SIMPLICITYSTUDIO\V4\DEVELOPER\TOOLCHAINS\KEIL_8051\9.53\LIB\C51S.LIB (?C?SLSHR)
         COMMENT TYPE 1: A51 / ASM51 Assembler
  C:\SILICONLABS\SIMPLICITYSTUDIO\V4\DEVELOPER\TOOLCHAINS\KEIL_8051\9.53\LIB\C51S.LIB (?C?LSHL)
         COMMENT TYPE 1: A51 / ASM51 Assembler


ACTIVE MEMORY CLASSES OF MODULE:  F99X-98X_SMBUS_MASTER.OMF.CRBUILD (F99X_SMBUS_MASTER)

BASE        START       END         USED      MEMORY CLASS
==========================================================
C:000000H   C:000000H   C:001FFEH             ECODE
B00:0000H   C:000000H   C:001FFEH             HCONST
X:000000H   X:000000H   X:0000FFH   000001H   XDATA
X:000000H   X:000000H   X:0000FFH             HDATA
C:000000H   C:000000H   C:00FFFFH   000974H   CODE
I:000000H   I:000000H   I:00007FH   000068H   DATA
I:000020H.0 I:000020H.0 I:00002FH.7 000000H.3 BIT
I:000000H   I:000000H   I:0000FFH   000001H   IDATA


MEMORY MAP OF MODULE:  F99X-98X_SMBUS_MASTER.OMF.CRBUILD (F99X_SMBUS_MASTER)


START     STOP      LENGTH    ALIGN  RELOC    MEMORY CLASS   SEGMENT NAME
=========================================================================
LX51 LINKER/LOCATER V4.66.30.0                                                        04/17/2018  10:08:45  PAGE 2



* * * * * * * * * * *   D A T A   M E M O R Y   * * * * * * * * * * * * *
000000H   000007H   000008H   ---    AT..     DATA           "REG BANK 0"
000008H   00001AH   000013H   BYTE   UNIT     DATA           _DATA_GROUP_
00001BH   00001BH   000001H   BYTE   UNIT     DATA           ?DT?INTERRUPTS
00001CH.0 00001FH.7 000004H.0 ---    ---      **GAP**
000020H.0 000020H.1 000000H.2 BIT    UNIT     BIT            ?BI?F99X_SMBUS_MASTER
000020H.2 000020H.2 000000H.1 BIT    UNIT     BIT            _BIT_GROUP_
000020H.3 000020H   000000H.5 ---    ---      **GAP**
000021H   00006CH   00004CH   BYTE   UNIT     DATA           ?DT?F99X_SMBUS_MASTER
00006DH   00006DH   000001H   BYTE   UNIT     IDATA          ?STACK

* * * * * * * * * * *   C O D E   M E M O R Y   * * * * * * * * * * * * *
000000H   000002H   000003H   ---    OFFS..   CODE           ?CO?SILABS_STARTUP?3
000003H   000025H   000023H   BYTE   UNIT     CODE           ?C_INITSEG
000026H   00003AH   000015H   BYTE   UNIT     CODE           ?PR?ENTER_MODE2_FROM_DEFAULTMODE?INITDEVICE
00003BH   00003DH   000003H   BYTE   OFFS..   CODE           ?INTERRUPTS?0003B
00003EH   00005CH   00001FH   BYTE   UNIT     CODE           ?PR?_SMB_READ_REG?F99X_SMBUS_MASTER
00005DH   000072H   000016H   BYTE   UNIT     CODE           ?CO?F99X_SMBUS_MASTER
000073H   000075H   000003H   BYTE   OFFS..   CODE           ?INTERRUPTS?00073
000076H   0002D0H   00025BH   BYTE   UNIT     CODE           ?PR?GETHUM?F99X_SMBUS_MASTER
0002D1H   000478H   0001A8H   BYTE   UNIT     CODE           ?C?LIB_CODE
000479H   000582H   00010AH   BYTE   UNIT     CODE           ?PR?GETTEMP?F99X_SMBUS_MASTER
000583H   000655H   0000D3H   BYTE   UNIT     CODE           ?PR?_PRINT?F99X_SMBUS_MASTER
000656H   000728H   0000D3H   BYTE   UNIT     CODE           ?PR?MAIN?F99X_SMBUS_MASTER
000729H   0007CEH   0000A6H   BYTE   UNIT     CODE           ?PR?SMBUS0_ISR?INTERRUPTS
0007CFH   00085DH   00008FH   BYTE   UNIT     CODE           ?C_C51STARTUP
00085EH   0008A1H   000044H   BYTE   UNIT     CODE           ?C?LDIV
0008A2H   0008BAH   000019H   BYTE   UNIT     CODE           ?PR?_SMB_WRITE_REG?F99X_SMBUS_MASTER
0008BBH   0008D3H   000019H   BYTE   UNIT     CODE           ?PR?TIMER16_3_ENTER_MODE2_FROM_DEFAULTMODE?INITDEVICE
0008D4H   0008E5H   000012H   BYTE   UNIT     CODE           ?PR?ENTER_DEFAULTMODE_FROM_RESET?INITDEVICE
0008E6H   0008F3H   00000EH   BYTE   UNIT     CODE           ?PR?TIMER3_ISR?INTERRUPTS
0008F4H   000900H   00000DH   BYTE   UNIT     CODE           ?PR?UART_INIT?F99X_SMBUS_MASTER
000901H   00090DH   00000DH   BYTE   UNIT     CODE           ?PR?SMB_READ?F99X_SMBUS_MASTER
00090EH   00091AH   00000DH   BYTE   UNIT     CODE           ?PR?TIMER_SETUP_0_ENTER_MODE2_FROM_DEFAULTMODE?INITDEVICE
00091BH   000925H   00000BH   BYTE   UNIT     CODE           ?PR?TIMER00_0_ENTER_MODE2_FROM_DEFAULTMODE?INITDEVICE
000926H   000930H   00000BH   BYTE   UNIT     CODE           ?PR?TIMER01_0_ENTER_DEFAULTMODE_FROM_RESET?INITDEVICE
000931H   00093AH   00000AH   BYTE   UNIT     CODE           ?PR?SMB_WRITE?F99X_SMBUS_MASTER
00093BH   000942H   000008H   BYTE   UNIT     CODE           ?PR?_UART_SEND?F99X_SMBUS_MASTER
000943H   000949H   000007H   BYTE   UNIT     CODE           ?PR?PCA_0_ENTER_DEFAULTMODE_FROM_RESET?INITDEVICE
00094AH   000950H   000007H   BYTE   UNIT     CODE           ?PR?PORTS_1_ENTER_MODE2_FROM_DEFAULTMODE?INITDEVICE
000951H   000957H   000007H   BYTE   UNIT     CODE           ?PR?PBCFG_0_ENTER_MODE2_FROM_DEFAULTMODE?INITDEVICE
000958H   00095EH   000007H   BYTE   UNIT     CODE           ?PR?INTERRUPT_0_ENTER_MODE2_FROM_DEFAULTMODE?INITDEVICE
00095FH   000962H   000004H   BYTE   UNIT     CODE           ?PR?VREG_0_ENTER_DEFAULTMODE_FROM_RESET?INITDEVICE
000963H   000966H   000004H   BYTE   UNIT     CODE           ?PR?HFOSC_0_ENTER_DEFAULTMODE_FROM_RESET?INITDEVICE
000967H   00096AH   000004H   BYTE   UNIT     CODE           ?PR?CLOCK_0_ENTER_DEFAULTMODE_FROM_RESET?INITDEVICE
00096BH   00096EH   000004H   BYTE   UNIT     CODE           ?PR?SMBUS_0_ENTER_MODE2_FROM_DEFAULTMODE?INITDEVICE
00096FH   000972H   000004H   BYTE   UNIT     CODE           ?PR?UART_0_ENTER_DEFAULTMODE_FROM_RESET?INITDEVICE
000973H   000973H   000001H   BYTE   UNIT     CODE           ?PR?SILABS_STARTUP?F99X_SMBUS_MASTER

* * * * * * * * * * *  X D A T A   M E M O R Y  * * * * * * * * * * * * *
000000H   000000H   000001H   BYTE   OFFS..   XDATA          ?XD?F99X_SMBUS_MASTER?0

* * * * * * * * *   R E M O V E D     S E G M E N T S   * * * * * * * *
   *DEL*:           000004H   BYTE   UNIT     CODE           ?PR?GETGAS?F99X_SMBUS_MASTER
   *DEL*:           000018H   BYTE   UNIT     CODE           ?PR?_T0_WAIT_MS?F99X_SMBUS_MASTER



OVERLAY MAP OF MODULE:   F99X-98X_SMBUS_MASTER.OMF.CRBUILD (F99X_SMBUS_MASTER)


LX51 LINKER/LOCATER V4.66.30.0                                                        04/17/2018  10:08:45  PAGE 3


FUNCTION/MODULE                                BIT_GROUP   DATA_GROUP 
--> CALLED FUNCTION/MODULE                    START  STOP  START  STOP
======================================================================
SMBUS0_ISR/INTERRUPTS                         20H.2 20H.2  ----- -----

*** NEW ROOT ********************************

TIMER3_ISR/INTERRUPTS                         ----- -----  ----- -----

*** NEW ROOT ********************************

?C_C51STARTUP                                 ----- -----  ----- -----
  +--> SILABS_STARTUP/F99X_SMBUS_MASTER
  +--> MAIN/F99X_SMBUS_MASTER
  +--> ?C_INITSEG

SILABS_STARTUP/F99X_SMBUS_MASTER              ----- -----  ----- -----

MAIN/F99X_SMBUS_MASTER                        ----- -----  ----- -----
  +--> ENTER_DEFAULTMODE_FROM_RESET/INITDEVICE
  +--> ENTER_MODE2_FROM_DEFAULTMODE/INITDEVICE
  +--> UART_INIT/F99X_SMBUS_MASTER
  +--> _SMB_WRITE_REG/F99X_SMBUS_MASTER
  +--> _SMB_READ_REG/F99X_SMBUS_MASTER
  +--> GETTEMP/F99X_SMBUS_MASTER
  +--> ?CO?F99X_SMBUS_MASTER
  +--> _PRINT/F99X_SMBUS_MASTER
  +--> GETHUM/F99X_SMBUS_MASTER

ENTER_DEFAULTMODE_FROM_RESET/INITDEVICE       ----- -----  ----- -----
  +--> PCA_0_ENTER_DEFAULTMODE_FROM_RESET/INITDEVICE
  +--> VREG_0_ENTER_DEFAULTMODE_FROM_RESET/INITDEVICE
  +--> HFOSC_0_ENTER_DEFAULTMODE_FROM_RESET/INITDEVICE
  +--> CLOCK_0_ENTER_DEFAULTMODE_FROM_RESET/INITDEVICE
  +--> TIMER01_0_ENTER_DEFAULTMODE_FROM_RESET/INITDEVICE
  +--> UART_0_ENTER_DEFAULTMODE_FROM_RESET/INITDEVICE

PCA_0_ENTER_DEFAULTMODE_FROM_RESET/INITD+     ----- -----  ----- -----
... EVICE

VREG_0_ENTER_DEFAULTMODE_FROM_RESET/INIT+     ----- -----  ----- -----
... DEVICE

HFOSC_0_ENTER_DEFAULTMODE_FROM_RESET/INI+     ----- -----  ----- -----
... TDEVICE

CLOCK_0_ENTER_DEFAULTMODE_FROM_RESET/INI+     ----- -----  ----- -----
... TDEVICE

TIMER01_0_ENTER_DEFAULTMODE_FROM_RESET/I+     ----- -----  ----- -----
... NITDEVICE

UART_0_ENTER_DEFAULTMODE_FROM_RESET/INIT+     ----- -----  ----- -----
... DEVICE

ENTER_MODE2_FROM_DEFAULTMODE/INITDEVICE       ----- -----  ----- -----
  +--> PORTS_1_ENTER_MODE2_FROM_DEFAULTMODE/INITDEVICE
  +--> PBCFG_0_ENTER_MODE2_FROM_DEFAULTMODE/INITDEVICE
  +--> TIMER00_0_ENTER_MODE2_FROM_DEFAULTMODE/INITDEVICE
  +--> TIMER16_3_ENTER_MODE2_FROM_DEFAULTMODE/INITDEVICE
  +--> TIMER_SETUP_0_ENTER_MODE2_FROM_DEFAULTMODE/INITDEVICE
  +--> SMBUS_0_ENTER_MODE2_FROM_DEFAULTMODE/INITDEVICE
LX51 LINKER/LOCATER V4.66.30.0                                                        04/17/2018  10:08:45  PAGE 4


  +--> INTERRUPT_0_ENTER_MODE2_FROM_DEFAULTMODE/INITDEVICE

PORTS_1_ENTER_MODE2_FROM_DEFAULTMODE/INI+     ----- -----  ----- -----
... TDEVICE

PBCFG_0_ENTER_MODE2_FROM_DEFAULTMODE/INI+     ----- -----  ----- -----
... TDEVICE

TIMER00_0_ENTER_MODE2_FROM_DEFAULTMODE/I+     ----- -----  ----- -----
... NITDEVICE

TIMER16_3_ENTER_MODE2_FROM_DEFAULTMODE/I+     ----- -----  ----- -----
... NITDEVICE

TIMER_SETUP_0_ENTER_MODE2_FROM_DEFAULTMO+     ----- -----  ----- -----
... DE/INITDEVICE

SMBUS_0_ENTER_MODE2_FROM_DEFAULTMODE/INI+     ----- -----  ----- -----
... TDEVICE

INTERRUPT_0_ENTER_MODE2_FROM_DEFAULTMODE+     ----- -----  ----- -----
... /INITDEVICE

UART_INIT/F99X_SMBUS_MASTER                   ----- -----  ----- -----

_SMB_WRITE_REG/F99X_SMBUS_MASTER              ----- -----  ----- -----
  +--> SMB_WRITE/F99X_SMBUS_MASTER

SMB_WRITE/F99X_SMBUS_MASTER                   ----- -----  ----- -----

_SMB_READ_REG/F99X_SMBUS_MASTER               ----- -----  0008H 0008H
  +--> SMB_WRITE/F99X_SMBUS_MASTER
  +--> SMB_READ/F99X_SMBUS_MASTER

SMB_READ/F99X_SMBUS_MASTER                    ----- -----  ----- -----

GETTEMP/F99X_SMBUS_MASTER                     ----- -----  ----- -----
  +--> _SMB_READ_REG/F99X_SMBUS_MASTER

?CO?F99X_SMBUS_MASTER                         ----- -----  ----- -----

_PRINT/F99X_SMBUS_MASTER                      ----- -----  0008H 001AH
  +--> _UART_SEND/F99X_SMBUS_MASTER

_UART_SEND/F99X_SMBUS_MASTER                  ----- -----  ----- -----

GETHUM/F99X_SMBUS_MASTER                      ----- -----  ----- -----
  +--> _SMB_READ_REG/F99X_SMBUS_MASTER

?C_INITSEG                                    ----- -----  ----- -----



PUBLIC SYMBOLS OF MODULE:  F99X-98X_SMBUS_MASTER.OMF.CRBUILD (F99X_SMBUS_MASTER)


      VALUE       CLASS    TYPE      PUBLIC SYMBOL NAME
      =================================================
      010002D1H   CODE     ---       ?C?CLDPTR
      00000000H   NUMBER   ---       ?C?CODESEG
      010002EAH   CODE     ---       ?C?CSTPTR
      010002FCH   CODE     ---       ?C?IMUL
LX51 LINKER/LOCATER V4.66.30.0                                                        04/17/2018  10:08:45  PAGE 5


      0100030EH   CODE     ---       ?C?LMUL
      01000466H   CODE     ---       ?C?LSHL
      0100042BH   CODE     ---       ?C?SLCMP
      0100085EH   CODE     ---       ?C?SLDIV
      01000452H   CODE     ---       ?C?SLSHR
      01000441H   CODE     ---       ?C?ULCMP
      01000399H   CODE     ---       ?C?ULDIV
      00000000H   NUMBER   ---       ?C?XDATASEG
      01000819H   CODE     ---       ?C_START
      01000000H   CODE     NEAR LAB  ?C_STARTUP
      0100058CH   CODE     ---       _print
      0100003EH   CODE     ---       _SMB_Read_Reg
      010008A8H   CODE     ---       _SMB_Write_Reg
*DEL*:00000000H   CODE     ---       _T0_Wait_ms
      0100093BH   CODE     ---       _UART_Send
      00000046H   DATA     LONG      a
*SFR* 000000E0H   DATA     BYTE      ACC
*SFR* 000000E0H   DATA     BIT       ACC_ACC0
*SFR* 000000E0H.1 DATA     BIT       ACC_ACC1
*SFR* 000000E0H.2 DATA     BIT       ACC_ACC2
*SFR* 000000E0H.3 DATA     BIT       ACC_ACC3
*SFR* 000000E0H.4 DATA     BIT       ACC_ACC4
*SFR* 000000E0H.5 DATA     BIT       ACC_ACC5
*SFR* 000000E0H.6 DATA     BIT       ACC_ACC6
*SFR* 000000E0H.7 DATA     BIT       ACC_ACC7
*SFR* 000000BDH   DATA     WORD      ADC0
*SFR* 000000BAH   DATA     BYTE      ADC0AC
*SFR* 00000097H   DATA     BYTE      ADC0CF
*SFR* 000000E8H   DATA     BYTE      ADC0CN
*SFR* 000000E8H.6 DATA     BIT       ADC0CN_ADBMEN
*SFR* 000000E8H.4 DATA     BIT       ADC0CN_ADBUSY
*SFR* 000000E8H   DATA     BIT       ADC0CN_ADCM0
*SFR* 000000E8H.1 DATA     BIT       ADC0CN_ADCM1
*SFR* 000000E8H.2 DATA     BIT       ADC0CN_ADCM2
*SFR* 000000E8H.7 DATA     BIT       ADC0CN_ADEN
*SFR* 000000E8H.5 DATA     BIT       ADC0CN_ADINT
*SFR* 000000E8H.3 DATA     BIT       ADC0CN_ADWINT
*SFR* 000000C3H   DATA     WORD      ADC0GT
*SFR* 000000C4H   DATA     BYTE      ADC0GTH
*SFR* 000000C3H   DATA     BYTE      ADC0GTL
*SFR* 000000BEH   DATA     BYTE      ADC0H
*SFR* 000000BDH   DATA     BYTE      ADC0L
*SFR* 000000C5H   DATA     WORD      ADC0LT
*SFR* 000000C6H   DATA     BYTE      ADC0LTH
*SFR* 000000C5H   DATA     BYTE      ADC0LTL
*SFR* 00000096H   DATA     BYTE      ADC0MX
*SFR* 000000BBH   DATA     BYTE      ADC0PWR
*SFR* 000000BCH   DATA     BYTE      ADC0TK
      0000001BH   DATA     BYTE      ADDR_SEND
*SFR* 000000F0H   DATA     BYTE      B
*SFR* 000000F0H   DATA     BIT       B_B0
*SFR* 000000F0H.1 DATA     BIT       B_B1
*SFR* 000000F0H.2 DATA     BIT       B_B2
*SFR* 000000F0H.3 DATA     BIT       B_B3
*SFR* 000000F0H.4 DATA     BIT       B_B4
*SFR* 000000F0H.5 DATA     BIT       B_B5
*SFR* 000000F0H.6 DATA     BIT       B_B6
*SFR* 000000F0H.7 DATA     BIT       B_B7
      00000032H   DATA     LONG      calc_hum
      00000026H   DATA     INT       calc_temp
*SFR* 0000008EH   DATA     BYTE      CKCON
*SFR* 000000A9H   DATA     BYTE      CLKSEL
LX51 LINKER/LOCATER V4.66.30.0                                                        04/17/2018  10:08:45  PAGE 6


      01000967H   CODE     ---       CLOCK_0_enter_DefaultMode_from_RESET
*SFR* 0000009BH   DATA     BYTE      CPT0CN
*SFR* 0000009DH   DATA     BYTE      CPT0MD
*SFR* 0000009FH   DATA     BYTE      CPT0MX
*SFR* 0000009EH   DATA     BYTE      CRC0AUTO
*SFR* 00000084H   DATA     BYTE      CRC0CN
*SFR* 0000009AH   DATA     BYTE      CRC0CNT
*SFR* 00000086H   DATA     BYTE      CRC0DAT
*SFR* 0000009CH   DATA     BYTE      CRC0FLIP
*SFR* 00000085H   DATA     BYTE      CRC0IN
*SFR* 000000AAH   DATA     BYTE      CS0CF
*SFR* 000000B0H   DATA     BYTE      CS0CN
*SFR* 000000B0H.4 DATA     BIT       CS0CN_CSBUSY
*SFR* 000000B0H.3 DATA     BIT       CS0CN_CSCMPEN
*SFR* 000000B0H   DATA     BIT       CS0CN_CSCMPF
*SFR* 000000B0H.7 DATA     BIT       CS0CN_CSEN
*SFR* 000000B0H.6 DATA     BIT       CS0CN_CSEOS
*SFR* 000000B0H.5 DATA     BIT       CS0CN_CSINT
*SFR* 000000B0H.1 DATA     BIT       CS0CN_CSPME
*SFR* 000000EEH   DATA     BYTE      CS0DH
*SFR* 000000EDH   DATA     BYTE      CS0DL
*SFR* 000000AFH   DATA     BYTE      CS0MD1
*SFR* 000000F3H   DATA     BYTE      CS0MD2
*SFR* 000000F3H   DATA     BYTE      CS0MD3
*SFR* 000000ABH   DATA     BYTE      CS0MX
*SFR* 000000DEH   DATA     BYTE      CS0PM
*SFR* 000000D2H   DATA     BYTE      CS0SCAN0
*SFR* 000000D3H   DATA     BYTE      CS0SCAN1
*SFR* 000000DEH   DATA     BYTE      CS0SE
*SFR* 000000DDH   DATA     BYTE      CS0SS
*SFR* 000000FEH   DATA     BYTE      CS0THH
*SFR* 000000FDH   DATA     BYTE      CS0THL
*SFR* 000000E3H   DATA     BYTE      DERIVID
*SFR* 00000082H   DATA     WORD      DP
*SFR* 00000083H   DATA     BYTE      DPH
*SFR* 00000082H   DATA     BYTE      DPL
*SFR* 000000E6H   DATA     BYTE      EIE1
*SFR* 000000E7H   DATA     BYTE      EIE2
*SFR* 000000F6H   DATA     BYTE      EIP1
*SFR* 000000F7H   DATA     BYTE      EIP2
      010008D4H   CODE     ---       enter_DefaultMode_from_RESET
      01000026H   CODE     ---       enter_Mode2_from_DefaultMode
*SFR* 000000B7H   DATA     BYTE      FLKEY
*SFR* 000000B6H   DATA     BYTE      FLSCL
*SFR* 000000E5H   DATA     BYTE      FLWR
*DEL*:00000000H   CODE     ---       getGas
      01000076H   CODE     ---       getHum
      01000479H   CODE     ---       getTemp
      01000963H   CODE     ---       HFOSC_0_enter_DefaultMode_from_RESET
      00000043H   DATA     WORD      hum_adc
      0000004AH   DATA     LONG      hvar1
      0000004EH   DATA     LONG      hvar2
      00000052H   DATA     LONG      hvar3
      00000056H   DATA     INT       hvar4
      00000058H   DATA     LONG      hvar5
      0000005CH   DATA     LONG      hvar6
*SFR* 000000A8H   DATA     BYTE      IE
*SFR* 000000A8H.7 DATA     BIT       IE_EA
*SFR* 000000A8H.4 DATA     BIT       IE_ES0
*SFR* 000000A8H.6 DATA     BIT       IE_ESPI0
*SFR* 000000A8H.1 DATA     BIT       IE_ET0
*SFR* 000000A8H.3 DATA     BIT       IE_ET1
LX51 LINKER/LOCATER V4.66.30.0                                                        04/17/2018  10:08:45  PAGE 7


*SFR* 000000A8H.5 DATA     BIT       IE_ET2
*SFR* 000000A8H   DATA     BIT       IE_EX0
*SFR* 000000A8H.2 DATA     BIT       IE_EX1
      01000958H   CODE     ---       INTERRUPT_0_enter_Mode2_from_DefaultMode
*SFR* 000000B8H   DATA     BYTE      IP
*SFR* 000000B8H.4 DATA     BIT       IP_PS0
*SFR* 000000B8H.6 DATA     BIT       IP_PSPI0
*SFR* 000000B8H.1 DATA     BIT       IP_PT0
*SFR* 000000B8H.3 DATA     BIT       IP_PT1
*SFR* 000000B8H.5 DATA     BIT       IP_PT2
*SFR* 000000B8H   DATA     BIT       IP_PX0
*SFR* 000000B8H.2 DATA     BIT       IP_PX1
*SFR* 000000B9H   DATA     BYTE      IREF0CF
*SFR* 000000D6H   DATA     BYTE      IREF0CN
*SFR* 000000E4H   DATA     BYTE      IT01CF
      01000656H   CODE     ---       main
*SFR* 000000B3H   DATA     BYTE      OSCICL
*SFR* 000000B2H   DATA     BYTE      OSCICN
*SFR* 000000B1H   DATA     BYTE      OSCXCN
*SFR* 00000080H   DATA     BYTE      P0
*SFR* 00000080H   DATA     BIT       P0_B0
*SFR* 00000080H.1 DATA     BIT       P0_B1
*SFR* 00000080H.2 DATA     BIT       P0_B2
*SFR* 00000080H.3 DATA     BIT       P0_B3
*SFR* 00000080H.4 DATA     BIT       P0_B4
*SFR* 00000080H.5 DATA     BIT       P0_B5
*SFR* 00000080H.6 DATA     BIT       P0_B6
*SFR* 00000080H.7 DATA     BIT       P0_B7
*SFR* 00000099H   DATA     BYTE      P0DRV
*SFR* 000000C7H   DATA     BYTE      P0MASK
*SFR* 000000D7H   DATA     BYTE      P0MAT
*SFR* 000000F1H   DATA     BYTE      P0MDIN
*SFR* 000000A4H   DATA     BYTE      P0MDOUT
*SFR* 000000D4H   DATA     BYTE      P0SKIP
*SFR* 00000090H   DATA     BYTE      P1
*SFR* 00000090H   DATA     BIT       P1_B0
*SFR* 00000090H.1 DATA     BIT       P1_B1
*SFR* 00000090H.2 DATA     BIT       P1_B2
*SFR* 00000090H.3 DATA     BIT       P1_B3
*SFR* 00000090H.4 DATA     BIT       P1_B4
*SFR* 00000090H.5 DATA     BIT       P1_B5
*SFR* 00000090H.6 DATA     BIT       P1_B6
*SFR* 00000090H.7 DATA     BIT       P1_B7
*SFR* 0000009BH   DATA     BYTE      P1DRV
*SFR* 000000BFH   DATA     BYTE      P1MASK
*SFR* 000000CFH   DATA     BYTE      P1MAT
*SFR* 000000F2H   DATA     BYTE      P1MDIN
*SFR* 000000A5H   DATA     BYTE      P1MDOUT
*SFR* 000000D5H   DATA     BYTE      P1SKIP
*SFR* 000000A0H   DATA     BYTE      P2
*SFR* 000000A0H.7 DATA     BIT       P2_B7
*SFR* 0000009DH   DATA     BYTE      P2DRV
*SFR* 000000A6H   DATA     BYTE      P2MDOUT
      00000029H   DATA     BYTE      par_g1
      0000002CH   DATA     WORD      par_g2
      00000030H   DATA     BYTE      par_g3
      0000002AH   DATA     WORD      par_h1
      0000002EH   DATA     WORD      par_h2
      00000031H   DATA     CHAR      par_h3
      00000036H   DATA     CHAR      par_h4
      00000039H   DATA     CHAR      par_h5
      0000003AH   DATA     BYTE      par_h6
LX51 LINKER/LOCATER V4.66.30.0                                                        04/17/2018  10:08:45  PAGE 8


      0000003BH   DATA     CHAR      par_h7
      0000003DH   DATA     WORD      par_t1
      0000003FH   DATA     INT       par_t2
      00000041H   DATA     CHAR      par_t3
      01000951H   CODE     ---       PBCFG_0_enter_Mode2_from_DefaultMode
*SFR* 000000F9H   DATA     WORD      PCA0
*SFR* 000000D8H   DATA     BYTE      PCA0CN
*SFR* 000000D8H   DATA     BIT       PCA0CN_CCF0
*SFR* 000000D8H.1 DATA     BIT       PCA0CN_CCF1
*SFR* 000000D8H.2 DATA     BIT       PCA0CN_CCF2
*SFR* 000000D8H.7 DATA     BIT       PCA0CN_CF
*SFR* 000000D8H.6 DATA     BIT       PCA0CN_CR
*SFR* 000000FBH   DATA     WORD      PCA0CP0
*SFR* 000000E9H   DATA     WORD      PCA0CP1
*SFR* 000000EBH   DATA     WORD      PCA0CP2
*SFR* 000000FCH   DATA     BYTE      PCA0CPH0
*SFR* 000000EAH   DATA     BYTE      PCA0CPH1
*SFR* 000000ECH   DATA     BYTE      PCA0CPH2
*SFR* 000000FBH   DATA     BYTE      PCA0CPL0
*SFR* 000000E9H   DATA     BYTE      PCA0CPL1
*SFR* 000000EBH   DATA     BYTE      PCA0CPL2
*SFR* 000000DAH   DATA     BYTE      PCA0CPM0
*SFR* 000000DBH   DATA     BYTE      PCA0CPM1
*SFR* 000000DCH   DATA     BYTE      PCA0CPM2
*SFR* 000000FAH   DATA     BYTE      PCA0H
*SFR* 000000F9H   DATA     BYTE      PCA0L
*SFR* 000000D9H   DATA     BYTE      PCA0MD
*SFR* 000000DFH   DATA     BYTE      PCA0PWM
      01000943H   CODE     ---       PCA_0_enter_DefaultMode_from_RESET
*SFR* 00000087H   DATA     BYTE      PCON
*SFR* 000000B5H   DATA     BYTE      PMU0CF
*SFR* 000000CEH   DATA     BYTE      PMU0FL
*SFR* 000000B5H   DATA     BYTE      PMU0MD
      0100094AH   CODE     ---       PORTS_1_enter_Mode2_from_DefaultMode
*SFR* 000000A0H   DATA     BYTE      PPAGE_SFR
*SFR* 0000008FH   DATA     BYTE      PSCTL
*SFR* 000000D0H   DATA     BYTE      PSW
*SFR* 000000D0H.6 DATA     BIT       PSW_AC
*SFR* 000000D0H.7 DATA     BIT       PSW_CY
*SFR* 000000D0H.5 DATA     BIT       PSW_F0
*SFR* 000000D0H.1 DATA     BIT       PSW_F1
*SFR* 000000D0H.2 DATA     BIT       PSW_OV
*SFR* 000000D0H   DATA     BIT       PSW_PARITY
*SFR* 000000D0H.3 DATA     BIT       PSW_RS0
*SFR* 000000D0H.4 DATA     BIT       PSW_RS1
*SFR* 000000D1H   DATA     BYTE      REF0CN
*SFR* 000000C9H   DATA     BYTE      REG0CN
      02000000H   XDATA    BYTE      reserved
*SFR* 000000E2H   DATA     BYTE      REVID
*SFR* 000000EFH   DATA     BYTE      RSTSRC
*SFR* 000000ACH   DATA     BYTE      RTC0ADR
*SFR* 000000ADH   DATA     BYTE      RTC0DAT
*SFR* 000000AEH   DATA     BYTE      RTC0KEY
      00000025H   DATA     BYTE      RW_Reg
*SFR* 00000099H   DATA     BYTE      SBUF0
*SFR* 00000080H.1 DATA     BIT       SCL
*SFR* 00000098H   DATA     BYTE      SCON0
*SFR* 00000098H.5 DATA     BIT       SCON0_MCE
*SFR* 00000098H.2 DATA     BIT       SCON0_RB8
*SFR* 00000098H.4 DATA     BIT       SCON0_REN
*SFR* 00000098H   DATA     BIT       SCON0_RI
*SFR* 00000098H.7 DATA     BIT       SCON0_SMODE
LX51 LINKER/LOCATER V4.66.30.0                                                        04/17/2018  10:08:45  PAGE 9


*SFR* 00000098H.3 DATA     BIT       SCON0_TB8
*SFR* 00000098H.1 DATA     BIT       SCON0_TI
*SFR* 00000080H   DATA     BIT       SDA
*SFR* 000000A7H   DATA     BYTE      SFRPAGE
      01000973H   CODE     ---       SiLabs_Startup
*SFR* 000000F5H   DATA     BYTE      SMB0ADM
*SFR* 000000F4H   DATA     BYTE      SMB0ADR
*SFR* 000000C1H   DATA     BYTE      SMB0CF
*SFR* 000000C0H   DATA     BYTE      SMB0CN
*SFR* 000000C0H.1 DATA     BIT       SMB0CN_ACK
*SFR* 000000C0H.3 DATA     BIT       SMB0CN_ACKRQ
*SFR* 000000C0H.2 DATA     BIT       SMB0CN_ARBLOST
*SFR* 000000C0H.7 DATA     BIT       SMB0CN_MASTER
*SFR* 000000C0H   DATA     BIT       SMB0CN_SI
*SFR* 000000C0H.5 DATA     BIT       SMB0CN_STA
*SFR* 000000C0H.4 DATA     BIT       SMB0CN_STO
*SFR* 000000C0H.6 DATA     BIT       SMB0CN_TXMODE
*SFR* 000000C2H   DATA     BYTE      SMB0DAT
      00000020H.0 BIT      BIT       SMB_BUSY
      00000045H   DATA     BYTE      SMB_DATA_IN
      00000028H   DATA     BYTE      SMB_DATA_OUT
      01000901H   CODE     ---       SMB_Read
      00000066H   DATA     BYTE      SMB_REG_OUT
      00000020H.1 BIT      BIT       SMB_RW
      01000931H   CODE     ---       SMB_Write
      01000729H   CODE     ---       SMBUS0_ISR
      0100096BH   CODE     ---       SMBUS_0_enter_Mode2_from_DefaultMode
*SFR* 00000081H   DATA     BYTE      SP
*SFR* 000000A1H   DATA     BYTE      SPI0CFG
*SFR* 000000A2H   DATA     BYTE      SPI0CKR
*SFR* 000000F8H   DATA     BYTE      SPI0CN
*SFR* 000000F8H.5 DATA     BIT       SPI0CN_MODF
*SFR* 000000F8H.2 DATA     BIT       SPI0CN_NSSMD0
*SFR* 000000F8H.3 DATA     BIT       SPI0CN_NSSMD1
*SFR* 000000F8H.4 DATA     BIT       SPI0CN_RXOVRN
*SFR* 000000F8H   DATA     BIT       SPI0CN_SPIEN
*SFR* 000000F8H.7 DATA     BIT       SPI0CN_SPIF
*SFR* 000000F8H.1 DATA     BIT       SPI0CN_TXBMT
*SFR* 000000F8H.6 DATA     BIT       SPI0CN_WCOL
*SFR* 000000A3H   DATA     BYTE      SPI0DAT
      00000042H   DATA     BYTE      START_SMB
      00000060H   DATA     LONG      t_fine
      0000003CH   DATA     BYTE      TARGET
*SFR* 00000088H   DATA     BYTE      TCON
*SFR* 00000088H.1 DATA     BIT       TCON_IE0
*SFR* 00000088H.3 DATA     BIT       TCON_IE1
*SFR* 00000088H   DATA     BIT       TCON_IT0
*SFR* 00000088H.2 DATA     BIT       TCON_IT1
*SFR* 00000088H.5 DATA     BIT       TCON_TF0
*SFR* 00000088H.7 DATA     BIT       TCON_TF1
*SFR* 00000088H.4 DATA     BIT       TCON_TR0
*SFR* 00000088H.6 DATA     BIT       TCON_TR1
      00000037H   DATA     WORD      temp_adc
      00000021H   DATA     LONG      temp_scaled
*SFR* 0000008CH   DATA     BYTE      TH0
*SFR* 0000008DH   DATA     BYTE      TH1
      0100091BH   CODE     ---       TIMER00_0_enter_Mode2_from_DefaultMode
      01000926H   CODE     ---       TIMER01_0_enter_DefaultMode_from_RESET
      010008BBH   CODE     ---       TIMER16_3_enter_Mode2_from_DefaultMode
      010008E6H   CODE     ---       TIMER3_ISR
      0100090EH   CODE     ---       TIMER_SETUP_0_enter_Mode2_from_DefaultMode
*SFR* 0000008AH   DATA     BYTE      TL0
LX51 LINKER/LOCATER V4.66.30.0                                                        04/17/2018  10:08:45  PAGE 10


*SFR* 0000008BH   DATA     BYTE      TL1
*SFR* 00000089H   DATA     BYTE      TMOD
*SFR* 000000CCH   DATA     WORD      TMR2
*SFR* 000000C8H   DATA     BYTE      TMR2CN
*SFR* 000000C8H.3 DATA     BIT       TMR2CN_T2SPLIT
*SFR* 000000C8H   DATA     BIT       TMR2CN_T2XCLK0
*SFR* 000000C8H.1 DATA     BIT       TMR2CN_T2XCLK1
*SFR* 000000C8H.4 DATA     BIT       TMR2CN_TF2CEN
*SFR* 000000C8H.7 DATA     BIT       TMR2CN_TF2H
*SFR* 000000C8H.6 DATA     BIT       TMR2CN_TF2L
*SFR* 000000C8H.5 DATA     BIT       TMR2CN_TF2LEN
*SFR* 000000C8H.2 DATA     BIT       TMR2CN_TR2
*SFR* 000000CDH   DATA     BYTE      TMR2H
*SFR* 000000CCH   DATA     BYTE      TMR2L
*SFR* 000000CAH   DATA     WORD      TMR2RL
*SFR* 000000CBH   DATA     BYTE      TMR2RLH
*SFR* 000000CAH   DATA     BYTE      TMR2RLL
*SFR* 00000094H   DATA     WORD      TMR3
*SFR* 00000091H   DATA     BYTE      TMR3CN
*SFR* 00000095H   DATA     BYTE      TMR3H
*SFR* 00000094H   DATA     BYTE      TMR3L
*SFR* 00000092H   DATA     WORD      TMR3RL
*SFR* 00000093H   DATA     BYTE      TMR3RLH
*SFR* 00000092H   DATA     BYTE      TMR3RLL
*SFR* 0000008EH   DATA     BYTE      TOFFH
*SFR* 0000008DH   DATA     BYTE      TOFFL
      0100096FH   CODE     ---       UART_0_enter_DefaultMode_from_RESET
      010008F4H   CODE     ---       UART_Init
      00000064H   DATA     INT       var1
      00000067H   DATA     LONG      var2
      0000006BH   DATA     INT       var3
*SFR* 000000FFH   DATA     BYTE      VDM0CN
      0100095FH   CODE     ---       VREG_0_enter_DefaultMode_from_RESET
*SFR* 000000E1H   DATA     BYTE      XBR0
*SFR* 000000E2H   DATA     BYTE      XBR1
*SFR* 000000E3H   DATA     BYTE      XBR2
*SFR* 00000090H.3 DATA     BIT       YELLOW_LED



SYMBOL TABLE OF MODULE:  F99X-98X_SMBUS_MASTER.OMF.CRBUILD (F99X_SMBUS_MASTER)

      VALUE       REP       CLASS    TYPE      SYMBOL NAME
      ====================================================
      ---         MODULE    ---      ---       F99X_SMBUS_MASTER
      0000006BH   PUBLIC    DATA     INT       var3
      00000067H   PUBLIC    DATA     LONG      var2
      00000066H   PUBLIC    DATA     BYTE      SMB_REG_OUT
      00000064H   PUBLIC    DATA     INT       var1
      00000060H   PUBLIC    DATA     LONG      t_fine
      00000020H.1 PUBLIC    BIT      BIT       SMB_RW
      0000005CH   PUBLIC    DATA     LONG      hvar6
      00000058H   PUBLIC    DATA     LONG      hvar5
      00000056H   PUBLIC    DATA     INT       hvar4
      00000052H   PUBLIC    DATA     LONG      hvar3
      0000004EH   PUBLIC    DATA     LONG      hvar2
      02000000H   PUBLIC    XDATA    BYTE      reserved
      0000004AH   PUBLIC    DATA     LONG      hvar1
      00000046H   PUBLIC    DATA     LONG      a
      00000045H   PUBLIC    DATA     BYTE      SMB_DATA_IN
      00000043H   PUBLIC    DATA     WORD      hum_adc
      00000042H   PUBLIC    DATA     BYTE      START_SMB
LX51 LINKER/LOCATER V4.66.30.0                                                        04/17/2018  10:08:45  PAGE 11


      00000041H   PUBLIC    DATA     CHAR      par_t3
      0000003FH   PUBLIC    DATA     INT       par_t2
      0000003DH   PUBLIC    DATA     WORD      par_t1
      0000003CH   PUBLIC    DATA     BYTE      TARGET
      0000003BH   PUBLIC    DATA     CHAR      par_h7
      0000003AH   PUBLIC    DATA     BYTE      par_h6
      00000039H   PUBLIC    DATA     CHAR      par_h5
      00000037H   PUBLIC    DATA     WORD      temp_adc
      00000036H   PUBLIC    DATA     CHAR      par_h4
      00000032H   PUBLIC    DATA     LONG      calc_hum
      00000031H   PUBLIC    DATA     CHAR      par_h3
      00000030H   PUBLIC    DATA     BYTE      par_g3
      0000002EH   PUBLIC    DATA     WORD      par_h2
      0000002CH   PUBLIC    DATA     WORD      par_g2
      0000002AH   PUBLIC    DATA     WORD      par_h1
      00000029H   PUBLIC    DATA     BYTE      par_g1
      00000028H   PUBLIC    DATA     BYTE      SMB_DATA_OUT
      00000026H   PUBLIC    DATA     INT       calc_temp
      00000025H   PUBLIC    DATA     BYTE      RW_Reg
      00000021H   PUBLIC    DATA     LONG      temp_scaled
      00000020H.0 PUBLIC    BIT      BIT       SMB_BUSY
      01000901H   PUBLIC    CODE     ---       SMB_Read
      01000931H   PUBLIC    CODE     ---       SMB_Write
      01000656H   PUBLIC    CODE     ---       main
      01000076H   PUBLIC    CODE     ---       getHum
      01000479H   PUBLIC    CODE     ---       getTemp
      010008A8H   PUBLIC    CODE     ---       _SMB_Write_Reg
      0100003EH   PUBLIC    CODE     ---       _SMB_Read_Reg
      0100058CH   PUBLIC    CODE     ---       _print
      0100093BH   PUBLIC    CODE     ---       _UART_Send
      010008F4H   PUBLIC    CODE     ---       UART_Init
      01000973H   PUBLIC    CODE     ---       SiLabs_Startup
      000000A2H   SFRSYM    DATA     BYTE      SPI0CKR
      00000080H   SFRSYM    DATA     BYTE      P0
      000000D0H.2 SFRSYM    DATA     BIT       PSW_OV
      000000D8H.7 SFRSYM    DATA     BIT       PCA0CN_CF
      00000090H   SFRSYM    DATA     BYTE      P1
      000000F8H.4 SFRSYM    DATA     BIT       SPI0CN_RXOVRN
      000000A0H   SFRSYM    DATA     BYTE      P2
      00000097H   SFRSYM    DATA     BYTE      ADC0CF
      000000C8H   SFRSYM    DATA     BIT       TMR2CN_T2XCLK0
      000000C8H.1 SFRSYM    DATA     BIT       TMR2CN_T2XCLK1
      000000E8H.7 SFRSYM    DATA     BIT       ADC0CN_ADEN
      000000F9H   SFRSYM    DATA     WORD      PCA0
      000000AEH   SFRSYM    DATA     BYTE      RTC0KEY
      000000E6H   SFRSYM    DATA     BYTE      EIE1
      000000E7H   SFRSYM    DATA     BYTE      EIE2
      0000008FH   SFRSYM    DATA     BYTE      PSCTL
      000000E4H   SFRSYM    DATA     BYTE      IT01CF
      000000E3H   SFRSYM    DATA     BYTE      DERIVID
      000000AFH   SFRSYM    DATA     BYTE      CS0MD1
      000000A7H   SFRSYM    DATA     BYTE      SFRPAGE
      000000F3H   SFRSYM    DATA     BYTE      CS0MD2
      000000E8H   SFRSYM    DATA     BYTE      ADC0CN
      000000A4H   SFRSYM    DATA     BYTE      P0MDOUT
      000000F3H   SFRSYM    DATA     BYTE      CS0MD3
      000000D8H.6 SFRSYM    DATA     BIT       PCA0CN_CR
      000000A5H   SFRSYM    DATA     BYTE      P1MDOUT
      000000CBH   SFRSYM    DATA     BYTE      TMR2RLH
      000000A6H   SFRSYM    DATA     BYTE      P2MDOUT
      000000A8H   SFRSYM    DATA     BYTE      IE
      00000093H   SFRSYM    DATA     BYTE      TMR3RLH
LX51 LINKER/LOCATER V4.66.30.0                                                        04/17/2018  10:08:45  PAGE 12


      000000F6H   SFRSYM    DATA     BYTE      EIP1
      000000F8H   SFRSYM    DATA     BIT       SPI0CN_SPIEN
      000000F7H   SFRSYM    DATA     BYTE      EIP2
      00000098H.2 SFRSYM    DATA     BIT       SCON0_RB8
      000000CAH   SFRSYM    DATA     BYTE      TMR2RLL
      000000FCH   SFRSYM    DATA     BYTE      PCA0CPH0
      00000092H   SFRSYM    DATA     BYTE      TMR3RLL
      000000EAH   SFRSYM    DATA     BYTE      PCA0CPH1
      00000098H.3 SFRSYM    DATA     BIT       SCON0_TB8
      000000F0H   SFRSYM    DATA     BIT       B_B0
      00000082H   SFRSYM    DATA     WORD      DP
      000000ECH   SFRSYM    DATA     BYTE      PCA0CPH2
      00000090H.3 SFRSYM    DATA     BIT       YELLOW_LED
      000000B0H.4 SFRSYM    DATA     BIT       CS0CN_CSBUSY
      000000F0H.1 SFRSYM    DATA     BIT       B_B1
      000000E8H.6 SFRSYM    DATA     BIT       ADC0CN_ADBMEN
      000000C3H   SFRSYM    DATA     WORD      ADC0GT
      000000F0H.2 SFRSYM    DATA     BIT       B_B2
      000000FBH   SFRSYM    DATA     BYTE      PCA0CPL0
      000000F0H.3 SFRSYM    DATA     BIT       B_B3
      000000D9H   SFRSYM    DATA     BYTE      PCA0MD
      000000DAH   SFRSYM    DATA     BYTE      PCA0CPM0
      000000E9H   SFRSYM    DATA     BYTE      PCA0CPL1
      000000D8H   SFRSYM    DATA     BYTE      PCA0CN
      000000F0H.4 SFRSYM    DATA     BIT       B_B4
      000000DBH   SFRSYM    DATA     BYTE      PCA0CPM1
      000000EBH   SFRSYM    DATA     BYTE      PCA0CPL2
      000000F0H.5 SFRSYM    DATA     BIT       B_B5
      000000DCH   SFRSYM    DATA     BYTE      PCA0CPM2
      000000B8H   SFRSYM    DATA     BYTE      IP
      000000BCH   SFRSYM    DATA     BYTE      ADC0TK
      000000F0H.6 SFRSYM    DATA     BIT       B_B6
      000000C5H   SFRSYM    DATA     WORD      ADC0LT
      00000098H.5 SFRSYM    DATA     BIT       SCON0_MCE
      000000F0H.7 SFRSYM    DATA     BIT       B_B7
      00000084H   SFRSYM    DATA     BYTE      CRC0CN
      000000E1H   SFRSYM    DATA     BYTE      XBR0
      000000C1H   SFRSYM    DATA     BYTE      SMB0CF
      000000E2H   SFRSYM    DATA     BYTE      XBR1
      000000D2H   SFRSYM    DATA     BYTE      CS0SCAN0
      000000E3H   SFRSYM    DATA     BYTE      XBR2
      000000D3H   SFRSYM    DATA     BYTE      CS0SCAN1
      00000096H   SFRSYM    DATA     BYTE      ADC0MX
      000000C0H.2 SFRSYM    DATA     BIT       SMB0CN_ARBLOST
      000000E0H   SFRSYM    DATA     BIT       ACC_ACC0
      000000D1H   SFRSYM    DATA     BYTE      REF0CN
      000000F8H.1 SFRSYM    DATA     BIT       SPI0CN_TXBMT
      000000E0H.1 SFRSYM    DATA     BIT       ACC_ACC1
      000000C9H   SFRSYM    DATA     BYTE      REG0CN
      00000085H   SFRSYM    DATA     BYTE      CRC0IN
      000000C0H   SFRSYM    DATA     BIT       SMB0CN_SI
      000000E0H.2 SFRSYM    DATA     BIT       ACC_ACC2
      000000E0H.3 SFRSYM    DATA     BIT       ACC_ACC3
      00000081H   SFRSYM    DATA     BYTE      SP
      000000E0H.4 SFRSYM    DATA     BIT       ACC_ACC4
      000000E0H.5 SFRSYM    DATA     BIT       ACC_ACC5
      000000C0H   SFRSYM    DATA     BYTE      SMB0CN
      000000E0H.6 SFRSYM    DATA     BIT       ACC_ACC6
      000000CCH   SFRSYM    DATA     WORD      TMR2
      000000E0H.7 SFRSYM    DATA     BIT       ACC_ACC7
      00000094H   SFRSYM    DATA     WORD      TMR3
      000000FFH   SFRSYM    DATA     BYTE      VDM0CN
LX51 LINKER/LOCATER V4.66.30.0                                                        04/17/2018  10:08:45  PAGE 13


      000000F1H   SFRSYM    DATA     BYTE      P0MDIN
      0000009DH   SFRSYM    DATA     BYTE      CPT0MD
      0000009BH   SFRSYM    DATA     BYTE      CPT0CN
      00000098H.4 SFRSYM    DATA     BIT       SCON0_REN
      000000F2H   SFRSYM    DATA     BYTE      P1MDIN
      000000FEH   SFRSYM    DATA     BYTE      CS0THH
      000000B5H   SFRSYM    DATA     BYTE      PMU0CF
      000000C8H.7 SFRSYM    DATA     BIT       TMR2CN_TF2H
      000000C8H.3 SFRSYM    DATA     BIT       TMR2CN_T2SPLIT
      000000C7H   SFRSYM    DATA     BYTE      P0MASK
      000000F8H   SFRSYM    DATA     BYTE      SPI0CN
      000000BFH   SFRSYM    DATA     BYTE      P1MASK
      000000FDH   SFRSYM    DATA     BYTE      CS0THL
      000000D0H.3 SFRSYM    DATA     BIT       PSW_RS0
      00000087H   SFRSYM    DATA     BYTE      PCON
      000000C8H.6 SFRSYM    DATA     BIT       TMR2CN_TF2L
      000000D0H.4 SFRSYM    DATA     BIT       PSW_RS1
      000000E8H   SFRSYM    DATA     BIT       ADC0CN_ADCM0
      000000B0H.1 SFRSYM    DATA     BIT       CS0CN_CSPME
      000000E8H.1 SFRSYM    DATA     BIT       ADC0CN_ADCM1
      000000E8H.2 SFRSYM    DATA     BIT       ADC0CN_ADCM2
      000000E8H.3 SFRSYM    DATA     BIT       ADC0CN_ADWINT
      00000089H   SFRSYM    DATA     BYTE      TMOD
      00000088H   SFRSYM    DATA     BYTE      TCON
      000000B5H   SFRSYM    DATA     BYTE      PMU0MD
      000000E8H.4 SFRSYM    DATA     BIT       ADC0CN_ADBUSY
      000000CEH   SFRSYM    DATA     BYTE      PMU0FL
      0000009CH   SFRSYM    DATA     BYTE      CRC0FLIP
      000000F8H.5 SFRSYM    DATA     BIT       SPI0CN_MODF
      000000D0H   SFRSYM    DATA     BIT       PSW_PARITY
      000000A8H.4 SFRSYM    DATA     BIT       IE_ES0
      000000A8H.1 SFRSYM    DATA     BIT       IE_ET0
      000000B0H.6 SFRSYM    DATA     BIT       CS0CN_CSEOS
      000000C8H   SFRSYM    DATA     BYTE      TMR2CN
      000000A8H.3 SFRSYM    DATA     BIT       IE_ET1
      00000091H   SFRSYM    DATA     BYTE      TMR3CN
      000000D4H   SFRSYM    DATA     BYTE      P0SKIP
      000000A8H.5 SFRSYM    DATA     BIT       IE_ET2
      000000D5H   SFRSYM    DATA     BYTE      P1SKIP
      000000A8H   SFRSYM    DATA     BIT       IE_EX0
      000000B0H.5 SFRSYM    DATA     BIT       CS0CN_CSINT
      000000E5H   SFRSYM    DATA     BYTE      FLWR
      000000C8H.4 SFRSYM    DATA     BIT       TMR2CN_TF2CEN
      000000A8H.2 SFRSYM    DATA     BIT       IE_EX1
      0000009FH   SFRSYM    DATA     BYTE      CPT0MX
      00000098H.7 SFRSYM    DATA     BIT       SCON0_SMODE
      000000B3H   SFRSYM    DATA     BYTE      OSCICL
      000000A9H   SFRSYM    DATA     BYTE      CLKSEL
      000000B2H   SFRSYM    DATA     BYTE      OSCICN
      000000F0H   SFRSYM    DATA     BYTE      B
      000000BEH   SFRSYM    DATA     BYTE      ADC0H
      000000F8H.7 SFRSYM    DATA     BIT       SPI0CN_SPIF
      0000009EH   SFRSYM    DATA     BYTE      CRC0AUTO
      000000B0H.3 SFRSYM    DATA     BIT       CS0CN_CSCMPEN
      000000CAH   SFRSYM    DATA     WORD      TMR2RL
      000000BDH   SFRSYM    DATA     BYTE      ADC0L
      000000C8H.5 SFRSYM    DATA     BIT       TMR2CN_TF2LEN
      000000F8H.6 SFRSYM    DATA     BIT       SPI0CN_WCOL
      00000092H   SFRSYM    DATA     WORD      TMR3RL
      000000F8H.2 SFRSYM    DATA     BIT       SPI0CN_NSSMD0
      000000E0H   SFRSYM    DATA     BYTE      ACC
      000000F8H.3 SFRSYM    DATA     BIT       SPI0CN_NSSMD1
LX51 LINKER/LOCATER V4.66.30.0                                                        04/17/2018  10:08:45  PAGE 14


      000000FBH   SFRSYM    DATA     WORD      PCA0CP0
      000000E9H   SFRSYM    DATA     WORD      PCA0CP1
      000000EBH   SFRSYM    DATA     WORD      PCA0CP2
      0000008CH   SFRSYM    DATA     BYTE      TH0
      000000B8H.4 SFRSYM    DATA     BIT       IP_PS0
      0000008DH   SFRSYM    DATA     BYTE      TH1
      000000FAH   SFRSYM    DATA     BYTE      PCA0H
      000000B8H.1 SFRSYM    DATA     BIT       IP_PT0
      000000B8H.3 SFRSYM    DATA     BIT       IP_PT1
      000000B8H.5 SFRSYM    DATA     BIT       IP_PT2
      0000008AH   SFRSYM    DATA     BYTE      TL0
      000000B1H   SFRSYM    DATA     BYTE      OSCXCN
      000000AAH   SFRSYM    DATA     BYTE      CS0CF
      000000D0H.5 SFRSYM    DATA     BIT       PSW_F0
      000000A8H.6 SFRSYM    DATA     BIT       IE_ESPI0
      0000008BH   SFRSYM    DATA     BYTE      TL1
      000000F9H   SFRSYM    DATA     BYTE      PCA0L
      000000D0H.1 SFRSYM    DATA     BIT       PSW_F1
      00000080H   SFRSYM    DATA     BIT       P0_B0
      000000B8H   SFRSYM    DATA     BIT       IP_PX0
      00000090H   SFRSYM    DATA     BIT       P1_B0
      00000080H.1 SFRSYM    DATA     BIT       P0_B1
      000000B8H.2 SFRSYM    DATA     BIT       IP_PX1
      000000EEH   SFRSYM    DATA     BYTE      CS0DH
      00000088H.1 SFRSYM    DATA     BIT       TCON_IE0
      000000C0H.7 SFRSYM    DATA     BIT       SMB0CN_MASTER
      00000090H.1 SFRSYM    DATA     BIT       P1_B1
      00000080H.2 SFRSYM    DATA     BIT       P0_B2
      00000088H.3 SFRSYM    DATA     BIT       TCON_IE1
      000000C0H.1 SFRSYM    DATA     BIT       SMB0CN_ACK
      00000090H.2 SFRSYM    DATA     BIT       P1_B2
      00000080H.3 SFRSYM    DATA     BIT       P0_B3
      00000090H.3 SFRSYM    DATA     BIT       P1_B3
      00000080H.4 SFRSYM    DATA     BIT       P0_B4
      00000090H.4 SFRSYM    DATA     BIT       P1_B4
      00000080H.5 SFRSYM    DATA     BIT       P0_B5
      000000EDH   SFRSYM    DATA     BYTE      CS0DL
      00000080H   SFRSYM    DATA     BIT       SDA
      00000090H.5 SFRSYM    DATA     BIT       P1_B5
      00000080H.6 SFRSYM    DATA     BIT       P0_B6
      000000B0H   SFRSYM    DATA     BYTE      CS0CN
      000000C0H.6 SFRSYM    DATA     BIT       SMB0CN_TXMODE
      00000090H.6 SFRSYM    DATA     BIT       P1_B6
      00000080H.7 SFRSYM    DATA     BIT       P0_B7
      00000090H.7 SFRSYM    DATA     BIT       P1_B7
      000000A0H.7 SFRSYM    DATA     BIT       P2_B7
      00000083H   SFRSYM    DATA     BYTE      DPH
      000000E8H.5 SFRSYM    DATA     BIT       ADC0CN_ADINT
      000000C4H   SFRSYM    DATA     BYTE      ADC0GTH
      000000D0H.6 SFRSYM    DATA     BIT       PSW_AC
      000000DEH   SFRSYM    DATA     BYTE      CS0SE
      00000088H.5 SFRSYM    DATA     BIT       TCON_TF0
      00000098H   SFRSYM    DATA     BIT       SCON0_RI
      00000082H   SFRSYM    DATA     BYTE      DPL
      00000088H.7 SFRSYM    DATA     BIT       TCON_TF1
      00000099H   SFRSYM    DATA     BYTE      SBUF0
      000000B9H   SFRSYM    DATA     BYTE      IREF0CF
      000000C3H   SFRSYM    DATA     BYTE      ADC0GTL
      00000080H.1 SFRSYM    DATA     BIT       SCL
      00000098H.1 SFRSYM    DATA     BIT       SCON0_TI
      000000C6H   SFRSYM    DATA     BYTE      ADC0LTH
      00000088H   SFRSYM    DATA     BIT       TCON_IT0
LX51 LINKER/LOCATER V4.66.30.0                                                        04/17/2018  10:08:45  PAGE 15


      000000B0H.7 SFRSYM    DATA     BIT       CS0CN_CSEN
      000000EFH   SFRSYM    DATA     BYTE      RSTSRC
      000000D7H   SFRSYM    DATA     BYTE      P0MAT
      00000086H   SFRSYM    DATA     BYTE      CRC0DAT
      00000088H.2 SFRSYM    DATA     BIT       TCON_IT1
      00000098H   SFRSYM    DATA     BYTE      SCON0
      000000CFH   SFRSYM    DATA     BYTE      P1MAT
      000000DEH   SFRSYM    DATA     BYTE      CS0PM
      000000F5H   SFRSYM    DATA     BYTE      SMB0ADM
      000000C5H   SFRSYM    DATA     BYTE      ADC0LTL
      000000B8H.6 SFRSYM    DATA     BIT       IP_PSPI0
      000000D6H   SFRSYM    DATA     BYTE      IREF0CN
      000000F4H   SFRSYM    DATA     BYTE      SMB0ADR
      00000088H.4 SFRSYM    DATA     BIT       TCON_TR0
      000000ABH   SFRSYM    DATA     BYTE      CS0MX
      00000088H.6 SFRSYM    DATA     BIT       TCON_TR1
      000000C2H   SFRSYM    DATA     BYTE      SMB0DAT
      00000099H   SFRSYM    DATA     BYTE      P0DRV
      000000DDH   SFRSYM    DATA     BYTE      CS0SS
      000000C0H.5 SFRSYM    DATA     BIT       SMB0CN_STA
      000000CDH   SFRSYM    DATA     BYTE      TMR2H
      000000A1H   SFRSYM    DATA     BYTE      SPI0CFG
      0000009BH   SFRSYM    DATA     BYTE      P1DRV
      00000095H   SFRSYM    DATA     BYTE      TMR3H
      0000009DH   SFRSYM    DATA     BYTE      P2DRV
      0000009AH   SFRSYM    DATA     BYTE      CRC0CNT
      0000008EH   SFRSYM    DATA     BYTE      CKCON
      000000C8H.2 SFRSYM    DATA     BIT       TMR2CN_TR2
      000000CCH   SFRSYM    DATA     BYTE      TMR2L
      000000ACH   SFRSYM    DATA     BYTE      RTC0ADR
      00000094H   SFRSYM    DATA     BYTE      TMR3L
      000000BBH   SFRSYM    DATA     BYTE      ADC0PWR
      000000D8H   SFRSYM    DATA     BIT       PCA0CN_CCF0
      000000A8H.7 SFRSYM    DATA     BIT       IE_EA
      000000ADH   SFRSYM    DATA     BYTE      RTC0DAT
      000000D8H.1 SFRSYM    DATA     BIT       PCA0CN_CCF1
      000000B6H   SFRSYM    DATA     BYTE      FLSCL
      000000D8H.2 SFRSYM    DATA     BIT       PCA0CN_CCF2
      000000D0H.7 SFRSYM    DATA     BIT       PSW_CY
      000000B0H   SFRSYM    DATA     BIT       CS0CN_CSCMPF
      000000A3H   SFRSYM    DATA     BYTE      SPI0DAT
      000000BDH   SFRSYM    DATA     WORD      ADC0
      0000008EH   SFRSYM    DATA     BYTE      TOFFH
      000000C0H.3 SFRSYM    DATA     BIT       SMB0CN_ACKRQ
      000000D0H   SFRSYM    DATA     BYTE      PSW
      000000DFH   SFRSYM    DATA     BYTE      PCA0PWM
      000000E2H   SFRSYM    DATA     BYTE      REVID
      000000C0H.4 SFRSYM    DATA     BIT       SMB0CN_STO
      0000008DH   SFRSYM    DATA     BYTE      TOFFL
      000000B7H   SFRSYM    DATA     BYTE      FLKEY
      000000BAH   SFRSYM    DATA     BYTE      ADC0AC

      01000973H   BLOCK     CODE     ---       LVL=0
      01000973H   LINE      CODE     ---       #91
      01000973H   LINE      CODE     ---       #92
      01000973H   LINE      CODE     ---       #94
      ---         BLOCKEND  ---      ---       LVL=0

      010008F4H   BLOCK     CODE     ---       LVL=0
      010008F4H   LINE      CODE     ---       #99
      010008F4H   LINE      CODE     ---       #100
      010008F4H   LINE      CODE     ---       #102
LX51 LINKER/LOCATER V4.66.30.0                                                        04/17/2018  10:08:45  PAGE 16


      010008F7H   LINE      CODE     ---       #103
      010008FAH   LINE      CODE     ---       #105
      010008FDH   LINE      CODE     ---       #106
      01000900H   LINE      CODE     ---       #107
      ---         BLOCKEND  ---      ---       LVL=0

      0100093BH   BLOCK     CODE     ---       LVL=0
      00000007H   SYMBOL    DATA     CHAR      c
      0100093BH   LINE      CODE     ---       #109
      0100093BH   LINE      CODE     ---       #110
      0100093BH   LINE      CODE     ---       #111
      0100093DH   LINE      CODE     ---       #112
      01000940H   LINE      CODE     ---       #113
      01000942H   LINE      CODE     ---       #114
      ---         BLOCKEND  ---      ---       LVL=0

      01000583H   BLOCK     CODE     VOID      LVL=0
      ---         BLOCKEND  ---      ---       LVL=0

      0100058CH   BLOCK     CODE     ---       LVL=0
      00000008H   SYMBOL    DATA     ---       string
      0000000BH   SYMBOL    DATA     DWORD     num
      00000006H   SYMBOL    DATA     CHAR      c
      0000000FH   SYMBOL    DATA     ---       s
      00000019H   SYMBOL    DATA     CHAR      j
      0000001AH   SYMBOL    DATA     CHAR      i
      00000005H   SYMBOL    DATA     BYTE      len
      0100059AH   BLOCK     CODE     NEAR LAB  LVL=1
      00000006H   SYMBOL    DATA     CHAR      c
      0000000FH   SYMBOL    DATA     ---       s
      00000019H   SYMBOL    DATA     CHAR      j
      0000001AH   SYMBOL    DATA     CHAR      i
      00000005H   SYMBOL    DATA     BYTE      len
      ---         BLOCKEND  ---      ---       LVL=1
      0100058CH   LINE      CODE     ---       #115
      0100059AH   LINE      CODE     ---       #116
      0100059AH   LINE      CODE     ---       #117
      0100059BH   LINE      CODE     ---       #119
      0100059DH   LINE      CODE     ---       #120
      0100059FH   LINE      CODE     ---       #121
      010005A0H   LINE      CODE     ---       #122
      010005B4H   LINE      CODE     ---       #123
      010005B8H   LINE      CODE     ---       #124
      010005B9H   LINE      CODE     ---       #125
      010005BBH   LINE      CODE     ---       #126
      010005C4H   LINE      CODE     ---       #127
      010005EBH   LINE      CODE     ---       #128
      01000607H   LINE      CODE     ---       #129
      01000620H   LINE      CODE     ---       #130
      01000633H   LINE      CODE     ---       #131
      01000633H   LINE      CODE     ---       #132
      01000637H   LINE      CODE     ---       #133
      01000643H   LINE      CODE     ---       #134
      01000643H   LINE      CODE     ---       #135
      0100064DH   LINE      CODE     ---       #136
      01000651H   LINE      CODE     ---       #137
      ---         BLOCKEND  ---      ---       LVL=0

      0100003EH   BLOCK     CODE     ---       LVL=0
      00000008H   SYMBOL    DATA     BYTE      Addr
      00000005H   SYMBOL    DATA     BYTE      Reg
      0100003EH   LINE      CODE     ---       #141
LX51 LINKER/LOCATER V4.66.30.0                                                        04/17/2018  10:08:45  PAGE 17


      01000040H   LINE      CODE     ---       #142
      01000040H   LINE      CODE     ---       #143
      01000043H   LINE      CODE     ---       #144
      01000046H   LINE      CODE     ---       #145
      01000048H   LINE      CODE     ---       #146
      0100004BH   LINE      CODE     ---       #147
      0100004EH   LINE      CODE     ---       #148
      01000051H   LINE      CODE     ---       #149
      01000057H   LINE      CODE     ---       #150
      0100005AH   LINE      CODE     ---       #151
      0100005CH   LINE      CODE     ---       #152
      ---         BLOCKEND  ---      ---       LVL=0

      010008A2H   BLOCK     CODE     VOID      LVL=0
      ---         BLOCKEND  ---      ---       LVL=0

      010008A8H   BLOCK     CODE     ---       LVL=0
      00000007H   SYMBOL    DATA     BYTE      Addr
      00000005H   SYMBOL    DATA     BYTE      Reg
      00000003H   SYMBOL    DATA     BYTE      Dat
      010008A8H   LINE      CODE     ---       #154
      010008A8H   LINE      CODE     ---       #155
      010008A8H   LINE      CODE     ---       #156
      010008ABH   LINE      CODE     ---       #157
      010008ADH   LINE      CODE     ---       #158
      010008B0H   LINE      CODE     ---       #159
      010008B2H   LINE      CODE     ---       #160
      010008B4H   LINE      CODE     ---       #161
      010008B7H   LINE      CODE     ---       #163
      010008BAH   LINE      CODE     ---       #165
      010008BAH   LINE      CODE     ---       #167
      ---         BLOCKEND  ---      ---       LVL=0

      01000479H   BLOCK     CODE     ---       LVL=0
      01000479H   LINE      CODE     ---       #168
      01000479H   LINE      CODE     ---       #169
      01000479H   LINE      CODE     ---       #170
      0100049AH   LINE      CODE     ---       #171
      010004B5H   LINE      CODE     ---       #172
      010004DDH   LINE      CODE     ---       #173
      010004FCH   LINE      CODE     ---       #174
      01000527H   LINE      CODE     ---       #175
      01000542H   LINE      CODE     ---       #176
      0100056DH   LINE      CODE     ---       #177
      01000582H   LINE      CODE     ---       #178
      01000582H   LINE      CODE     ---       #179
      ---         BLOCKEND  ---      ---       LVL=0

      01000076H   BLOCK     CODE     ---       LVL=0
      01000076H   LINE      CODE     ---       #180
      01000076H   LINE      CODE     ---       #181
      01000076H   LINE      CODE     ---       #182
      01000097H   LINE      CODE     ---       #185
      010000FDH   LINE      CODE     ---       #190
      01000190H   LINE      CODE     ---       #192
      010001A3H   LINE      CODE     ---       #194
      010001B4H   LINE      CODE     ---       #196
      010001F7H   LINE      CODE     ---       #198
      01000231H   LINE      CODE     ---       #200
      01000253H   LINE      CODE     ---       #202
      01000283H   LINE      CODE     ---       #205
      01000299H   LINE      CODE     ---       #206
LX51 LINKER/LOCATER V4.66.30.0                                                        04/17/2018  10:08:45  PAGE 18


      010002A7H   LINE      CODE     ---       #207
      010002ADH   LINE      CODE     ---       #208
      010002B6H   LINE      CODE     ---       #209
      010002D0H   LINE      CODE     ---       #212
      010002D0H   LINE      CODE     ---       #214
      ---         BLOCKEND  ---      ---       LVL=0

      01000656H   BLOCK     CODE     ---       LVL=0
      01000656H   BLOCK     CODE     NEAR LAB  LVL=1
      00000007H   SYMBOL    DATA     BYTE      i
      ---         BLOCKEND  ---      ---       LVL=1
      01000656H   LINE      CODE     ---       #221
      01000656H   LINE      CODE     ---       #222
      01000656H   LINE      CODE     ---       #225
      01000659H   LINE      CODE     ---       #228
      0100065CH   LINE      CODE     ---       #229
      0100065CH   LINE      CODE     ---       #232
      0100065FH   LINE      CODE     ---       #233
      01000661H   LINE      CODE     ---       #234
      01000667H   LINE      CODE     ---       #235
      01000669H   LINE      CODE     ---       #236
      0100066CH   LINE      CODE     ---       #238
      01000672H   LINE      CODE     ---       #239
      01000675H   LINE      CODE     ---       #240
      01000677H   LINE      CODE     ---       #242
      0100067AH   LINE      CODE     ---       #243
      0100067DH   LINE      CODE     ---       #247
      01000686H   LINE      CODE     ---       #248
      0100068FH   LINE      CODE     ---       #249
      01000692H   LINE      CODE     ---       #251
      0100069BH   LINE      CODE     ---       #252
      010006BCH   LINE      CODE     ---       #253
      010006C5H   LINE      CODE     ---       #268
      010006C5H   LINE      CODE     ---       #269
      010006C5H   LINE      CODE     ---       #270
      010006C8H   LINE      CODE     ---       #272
      010006D2H   LINE      CODE     ---       #273
      010006DCH   LINE      CODE     ---       #275
      010006EDH   LINE      CODE     ---       #277
      010006EFH   LINE      CODE     ---       #279
      0100070EH   LINE      CODE     ---       #282
      ---         BLOCKEND  ---      ---       LVL=0

      01000931H   BLOCK     CODE     ---       LVL=0
      01000931H   LINE      CODE     ---       #289
      01000931H   LINE      CODE     ---       #290
      01000931H   LINE      CODE     ---       #291
      01000934H   LINE      CODE     ---       #292
      01000936H   LINE      CODE     ---       #293
      01000938H   LINE      CODE     ---       #294
      0100093AH   LINE      CODE     ---       #295
      ---         BLOCKEND  ---      ---       LVL=0

      01000901H   BLOCK     CODE     ---       LVL=0
      01000901H   LINE      CODE     ---       #296
      01000901H   LINE      CODE     ---       #297
      01000901H   LINE      CODE     ---       #298
      01000904H   LINE      CODE     ---       #299
      01000906H   LINE      CODE     ---       #300
      01000908H   LINE      CODE     ---       #302
      0100090AH   LINE      CODE     ---       #304
      0100090DH   LINE      CODE     ---       #305
LX51 LINKER/LOCATER V4.66.30.0                                                        04/17/2018  10:08:45  PAGE 19


      ---         BLOCKEND  ---      ---       LVL=0
      00000007H   SYMBOL    DATA     BYTE      ms

      ---         MODULE    ---      ---       INITDEVICE
      01000026H   PUBLIC    CODE     ---       enter_Mode2_from_DefaultMode
      01000926H   PUBLIC    CODE     ---       TIMER01_0_enter_DefaultMode_from_RESET
      0100096FH   PUBLIC    CODE     ---       UART_0_enter_DefaultMode_from_RESET
      01000958H   PUBLIC    CODE     ---       INTERRUPT_0_enter_Mode2_from_DefaultMode
      0100096BH   PUBLIC    CODE     ---       SMBUS_0_enter_Mode2_from_DefaultMode
      0100090EH   PUBLIC    CODE     ---       TIMER_SETUP_0_enter_Mode2_from_DefaultMode
      010008BBH   PUBLIC    CODE     ---       TIMER16_3_enter_Mode2_from_DefaultMode
      0100091BH   PUBLIC    CODE     ---       TIMER00_0_enter_Mode2_from_DefaultMode
      01000951H   PUBLIC    CODE     ---       PBCFG_0_enter_Mode2_from_DefaultMode
      0100094AH   PUBLIC    CODE     ---       PORTS_1_enter_Mode2_from_DefaultMode
      01000967H   PUBLIC    CODE     ---       CLOCK_0_enter_DefaultMode_from_RESET
      01000963H   PUBLIC    CODE     ---       HFOSC_0_enter_DefaultMode_from_RESET
      0100095FH   PUBLIC    CODE     ---       VREG_0_enter_DefaultMode_from_RESET
      01000943H   PUBLIC    CODE     ---       PCA_0_enter_DefaultMode_from_RESET
      010008D4H   PUBLIC    CODE     ---       enter_DefaultMode_from_RESET
      000000A2H   SFRSYM    DATA     BYTE      SPI0CKR
      00000080H   SFRSYM    DATA     BYTE      P0
      000000D0H.2 SFRSYM    DATA     BIT       PSW_OV
      000000D8H.7 SFRSYM    DATA     BIT       PCA0CN_CF
      00000090H   SFRSYM    DATA     BYTE      P1
      000000F8H.4 SFRSYM    DATA     BIT       SPI0CN_RXOVRN
      000000A0H   SFRSYM    DATA     BYTE      P2
      00000097H   SFRSYM    DATA     BYTE      ADC0CF
      000000C8H   SFRSYM    DATA     BIT       TMR2CN_T2XCLK0
      000000C8H.1 SFRSYM    DATA     BIT       TMR2CN_T2XCLK1
      000000E8H.7 SFRSYM    DATA     BIT       ADC0CN_ADEN
      000000F9H   SFRSYM    DATA     WORD      PCA0
      000000AEH   SFRSYM    DATA     BYTE      RTC0KEY
      000000E6H   SFRSYM    DATA     BYTE      EIE1
      000000E7H   SFRSYM    DATA     BYTE      EIE2
      0000008FH   SFRSYM    DATA     BYTE      PSCTL
      000000E4H   SFRSYM    DATA     BYTE      IT01CF
      000000E3H   SFRSYM    DATA     BYTE      DERIVID
      000000AFH   SFRSYM    DATA     BYTE      CS0MD1
      000000A7H   SFRSYM    DATA     BYTE      SFRPAGE
      000000F3H   SFRSYM    DATA     BYTE      CS0MD2
      000000E8H   SFRSYM    DATA     BYTE      ADC0CN
      000000A4H   SFRSYM    DATA     BYTE      P0MDOUT
      000000F3H   SFRSYM    DATA     BYTE      CS0MD3
      000000D8H.6 SFRSYM    DATA     BIT       PCA0CN_CR
      000000A5H   SFRSYM    DATA     BYTE      P1MDOUT
      000000CBH   SFRSYM    DATA     BYTE      TMR2RLH
      000000A6H   SFRSYM    DATA     BYTE      P2MDOUT
      000000A8H   SFRSYM    DATA     BYTE      IE
      00000093H   SFRSYM    DATA     BYTE      TMR3RLH
      000000F6H   SFRSYM    DATA     BYTE      EIP1
      000000F8H   SFRSYM    DATA     BIT       SPI0CN_SPIEN
      000000F7H   SFRSYM    DATA     BYTE      EIP2
      00000098H.2 SFRSYM    DATA     BIT       SCON0_RB8
      000000CAH   SFRSYM    DATA     BYTE      TMR2RLL
      000000FCH   SFRSYM    DATA     BYTE      PCA0CPH0
      00000092H   SFRSYM    DATA     BYTE      TMR3RLL
      000000EAH   SFRSYM    DATA     BYTE      PCA0CPH1
      00000098H.3 SFRSYM    DATA     BIT       SCON0_TB8
      000000F0H   SFRSYM    DATA     BIT       B_B0
      00000082H   SFRSYM    DATA     WORD      DP
      000000ECH   SFRSYM    DATA     BYTE      PCA0CPH2
      000000B0H.4 SFRSYM    DATA     BIT       CS0CN_CSBUSY
LX51 LINKER/LOCATER V4.66.30.0                                                        04/17/2018  10:08:45  PAGE 20


      000000F0H.1 SFRSYM    DATA     BIT       B_B1
      000000E8H.6 SFRSYM    DATA     BIT       ADC0CN_ADBMEN
      000000C3H   SFRSYM    DATA     WORD      ADC0GT
      000000F0H.2 SFRSYM    DATA     BIT       B_B2
      000000FBH   SFRSYM    DATA     BYTE      PCA0CPL0
      000000F0H.3 SFRSYM    DATA     BIT       B_B3
      000000D9H   SFRSYM    DATA     BYTE      PCA0MD
      000000DAH   SFRSYM    DATA     BYTE      PCA0CPM0
      000000E9H   SFRSYM    DATA     BYTE      PCA0CPL1
      000000D8H   SFRSYM    DATA     BYTE      PCA0CN
      000000F0H.4 SFRSYM    DATA     BIT       B_B4
      000000DBH   SFRSYM    DATA     BYTE      PCA0CPM1
      000000EBH   SFRSYM    DATA     BYTE      PCA0CPL2
      000000F0H.5 SFRSYM    DATA     BIT       B_B5
      000000DCH   SFRSYM    DATA     BYTE      PCA0CPM2
      000000B8H   SFRSYM    DATA     BYTE      IP
      000000BCH   SFRSYM    DATA     BYTE      ADC0TK
      000000F0H.6 SFRSYM    DATA     BIT       B_B6
      000000C5H   SFRSYM    DATA     WORD      ADC0LT
      00000098H.5 SFRSYM    DATA     BIT       SCON0_MCE
      000000F0H.7 SFRSYM    DATA     BIT       B_B7
      00000084H   SFRSYM    DATA     BYTE      CRC0CN
      000000E1H   SFRSYM    DATA     BYTE      XBR0
      000000C1H   SFRSYM    DATA     BYTE      SMB0CF
      000000E2H   SFRSYM    DATA     BYTE      XBR1
      000000D2H   SFRSYM    DATA     BYTE      CS0SCAN0
      000000E3H   SFRSYM    DATA     BYTE      XBR2
      000000D3H   SFRSYM    DATA     BYTE      CS0SCAN1
      00000096H   SFRSYM    DATA     BYTE      ADC0MX
      000000C0H.2 SFRSYM    DATA     BIT       SMB0CN_ARBLOST
      000000E0H   SFRSYM    DATA     BIT       ACC_ACC0
      000000D1H   SFRSYM    DATA     BYTE      REF0CN
      000000F8H.1 SFRSYM    DATA     BIT       SPI0CN_TXBMT
      000000E0H.1 SFRSYM    DATA     BIT       ACC_ACC1
      000000C9H   SFRSYM    DATA     BYTE      REG0CN
      00000085H   SFRSYM    DATA     BYTE      CRC0IN
      000000C0H   SFRSYM    DATA     BIT       SMB0CN_SI
      000000E0H.2 SFRSYM    DATA     BIT       ACC_ACC2
      000000E0H.3 SFRSYM    DATA     BIT       ACC_ACC3
      00000081H   SFRSYM    DATA     BYTE      SP
      000000E0H.4 SFRSYM    DATA     BIT       ACC_ACC4
      000000E0H.5 SFRSYM    DATA     BIT       ACC_ACC5
      000000C0H   SFRSYM    DATA     BYTE      SMB0CN
      000000E0H.6 SFRSYM    DATA     BIT       ACC_ACC6
      000000CCH   SFRSYM    DATA     WORD      TMR2
      000000E0H.7 SFRSYM    DATA     BIT       ACC_ACC7
      00000094H   SFRSYM    DATA     WORD      TMR3
      000000FFH   SFRSYM    DATA     BYTE      VDM0CN
      000000F1H   SFRSYM    DATA     BYTE      P0MDIN
      0000009DH   SFRSYM    DATA     BYTE      CPT0MD
      0000009BH   SFRSYM    DATA     BYTE      CPT0CN
      00000098H.4 SFRSYM    DATA     BIT       SCON0_REN
      000000F2H   SFRSYM    DATA     BYTE      P1MDIN
      000000FEH   SFRSYM    DATA     BYTE      CS0THH
      000000B5H   SFRSYM    DATA     BYTE      PMU0CF
      000000C8H.7 SFRSYM    DATA     BIT       TMR2CN_TF2H
      000000C8H.3 SFRSYM    DATA     BIT       TMR2CN_T2SPLIT
      000000C7H   SFRSYM    DATA     BYTE      P0MASK
      000000F8H   SFRSYM    DATA     BYTE      SPI0CN
      000000BFH   SFRSYM    DATA     BYTE      P1MASK
      000000FDH   SFRSYM    DATA     BYTE      CS0THL
      000000D0H.3 SFRSYM    DATA     BIT       PSW_RS0
LX51 LINKER/LOCATER V4.66.30.0                                                        04/17/2018  10:08:45  PAGE 21


      00000087H   SFRSYM    DATA     BYTE      PCON
      000000C8H.6 SFRSYM    DATA     BIT       TMR2CN_TF2L
      000000D0H.4 SFRSYM    DATA     BIT       PSW_RS1
      000000E8H   SFRSYM    DATA     BIT       ADC0CN_ADCM0
      000000B0H.1 SFRSYM    DATA     BIT       CS0CN_CSPME
      000000E8H.1 SFRSYM    DATA     BIT       ADC0CN_ADCM1
      000000E8H.2 SFRSYM    DATA     BIT       ADC0CN_ADCM2
      000000E8H.3 SFRSYM    DATA     BIT       ADC0CN_ADWINT
      00000089H   SFRSYM    DATA     BYTE      TMOD
      00000088H   SFRSYM    DATA     BYTE      TCON
      000000B5H   SFRSYM    DATA     BYTE      PMU0MD
      000000E8H.4 SFRSYM    DATA     BIT       ADC0CN_ADBUSY
      000000CEH   SFRSYM    DATA     BYTE      PMU0FL
      0000009CH   SFRSYM    DATA     BYTE      CRC0FLIP
      000000F8H.5 SFRSYM    DATA     BIT       SPI0CN_MODF
      000000D0H   SFRSYM    DATA     BIT       PSW_PARITY
      000000A8H.4 SFRSYM    DATA     BIT       IE_ES0
      000000A8H.1 SFRSYM    DATA     BIT       IE_ET0
      000000B0H.6 SFRSYM    DATA     BIT       CS0CN_CSEOS
      000000C8H   SFRSYM    DATA     BYTE      TMR2CN
      000000A8H.3 SFRSYM    DATA     BIT       IE_ET1
      00000091H   SFRSYM    DATA     BYTE      TMR3CN
      000000D4H   SFRSYM    DATA     BYTE      P0SKIP
      000000A8H.5 SFRSYM    DATA     BIT       IE_ET2
      000000D5H   SFRSYM    DATA     BYTE      P1SKIP
      000000A8H   SFRSYM    DATA     BIT       IE_EX0
      000000B0H.5 SFRSYM    DATA     BIT       CS0CN_CSINT
      000000E5H   SFRSYM    DATA     BYTE      FLWR
      000000C8H.4 SFRSYM    DATA     BIT       TMR2CN_TF2CEN
      000000A8H.2 SFRSYM    DATA     BIT       IE_EX1
      0000009FH   SFRSYM    DATA     BYTE      CPT0MX
      00000098H.7 SFRSYM    DATA     BIT       SCON0_SMODE
      000000B3H   SFRSYM    DATA     BYTE      OSCICL
      000000A9H   SFRSYM    DATA     BYTE      CLKSEL
      000000B2H   SFRSYM    DATA     BYTE      OSCICN
      000000F0H   SFRSYM    DATA     BYTE      B
      000000BEH   SFRSYM    DATA     BYTE      ADC0H
      000000F8H.7 SFRSYM    DATA     BIT       SPI0CN_SPIF
      0000009EH   SFRSYM    DATA     BYTE      CRC0AUTO
      000000B0H.3 SFRSYM    DATA     BIT       CS0CN_CSCMPEN
      000000CAH   SFRSYM    DATA     WORD      TMR2RL
      000000BDH   SFRSYM    DATA     BYTE      ADC0L
      000000C8H.5 SFRSYM    DATA     BIT       TMR2CN_TF2LEN
      000000F8H.6 SFRSYM    DATA     BIT       SPI0CN_WCOL
      00000092H   SFRSYM    DATA     WORD      TMR3RL
      000000F8H.2 SFRSYM    DATA     BIT       SPI0CN_NSSMD0
      000000E0H   SFRSYM    DATA     BYTE      ACC
      000000F8H.3 SFRSYM    DATA     BIT       SPI0CN_NSSMD1
      000000FBH   SFRSYM    DATA     WORD      PCA0CP0
      000000E9H   SFRSYM    DATA     WORD      PCA0CP1
      000000EBH   SFRSYM    DATA     WORD      PCA0CP2
      0000008CH   SFRSYM    DATA     BYTE      TH0
      000000B8H.4 SFRSYM    DATA     BIT       IP_PS0
      0000008DH   SFRSYM    DATA     BYTE      TH1
      000000FAH   SFRSYM    DATA     BYTE      PCA0H
      000000B8H.1 SFRSYM    DATA     BIT       IP_PT0
      000000B8H.3 SFRSYM    DATA     BIT       IP_PT1
      000000B8H.5 SFRSYM    DATA     BIT       IP_PT2
      0000008AH   SFRSYM    DATA     BYTE      TL0
      000000B1H   SFRSYM    DATA     BYTE      OSCXCN
      000000AAH   SFRSYM    DATA     BYTE      CS0CF
      000000D0H.5 SFRSYM    DATA     BIT       PSW_F0
LX51 LINKER/LOCATER V4.66.30.0                                                        04/17/2018  10:08:45  PAGE 22


      000000A8H.6 SFRSYM    DATA     BIT       IE_ESPI0
      0000008BH   SFRSYM    DATA     BYTE      TL1
      000000F9H   SFRSYM    DATA     BYTE      PCA0L
      000000D0H.1 SFRSYM    DATA     BIT       PSW_F1
      00000080H   SFRSYM    DATA     BIT       P0_B0
      000000B8H   SFRSYM    DATA     BIT       IP_PX0
      00000090H   SFRSYM    DATA     BIT       P1_B0
      00000080H.1 SFRSYM    DATA     BIT       P0_B1
      000000B8H.2 SFRSYM    DATA     BIT       IP_PX1
      000000EEH   SFRSYM    DATA     BYTE      CS0DH
      00000088H.1 SFRSYM    DATA     BIT       TCON_IE0
      000000C0H.7 SFRSYM    DATA     BIT       SMB0CN_MASTER
      00000090H.1 SFRSYM    DATA     BIT       P1_B1
      00000080H.2 SFRSYM    DATA     BIT       P0_B2
      00000088H.3 SFRSYM    DATA     BIT       TCON_IE1
      000000C0H.1 SFRSYM    DATA     BIT       SMB0CN_ACK
      00000090H.2 SFRSYM    DATA     BIT       P1_B2
      00000080H.3 SFRSYM    DATA     BIT       P0_B3
      00000090H.3 SFRSYM    DATA     BIT       P1_B3
      00000080H.4 SFRSYM    DATA     BIT       P0_B4
      00000090H.4 SFRSYM    DATA     BIT       P1_B4
      00000080H.5 SFRSYM    DATA     BIT       P0_B5
      000000EDH   SFRSYM    DATA     BYTE      CS0DL
      00000090H.5 SFRSYM    DATA     BIT       P1_B5
      00000080H.6 SFRSYM    DATA     BIT       P0_B6
      000000B0H   SFRSYM    DATA     BYTE      CS0CN
      000000C0H.6 SFRSYM    DATA     BIT       SMB0CN_TXMODE
      00000090H.6 SFRSYM    DATA     BIT       P1_B6
      00000080H.7 SFRSYM    DATA     BIT       P0_B7
      00000090H.7 SFRSYM    DATA     BIT       P1_B7
      000000A0H.7 SFRSYM    DATA     BIT       P2_B7
      00000083H   SFRSYM    DATA     BYTE      DPH
      000000E8H.5 SFRSYM    DATA     BIT       ADC0CN_ADINT
      000000C4H   SFRSYM    DATA     BYTE      ADC0GTH
      000000D0H.6 SFRSYM    DATA     BIT       PSW_AC
      000000DEH   SFRSYM    DATA     BYTE      CS0SE
      00000088H.5 SFRSYM    DATA     BIT       TCON_TF0
      00000098H   SFRSYM    DATA     BIT       SCON0_RI
      00000082H   SFRSYM    DATA     BYTE      DPL
      00000088H.7 SFRSYM    DATA     BIT       TCON_TF1
      00000099H   SFRSYM    DATA     BYTE      SBUF0
      000000B9H   SFRSYM    DATA     BYTE      IREF0CF
      000000C3H   SFRSYM    DATA     BYTE      ADC0GTL
      00000098H.1 SFRSYM    DATA     BIT       SCON0_TI
      000000C6H   SFRSYM    DATA     BYTE      ADC0LTH
      00000088H   SFRSYM    DATA     BIT       TCON_IT0
      000000B0H.7 SFRSYM    DATA     BIT       CS0CN_CSEN
      000000EFH   SFRSYM    DATA     BYTE      RSTSRC
      000000D7H   SFRSYM    DATA     BYTE      P0MAT
      00000086H   SFRSYM    DATA     BYTE      CRC0DAT
      00000088H.2 SFRSYM    DATA     BIT       TCON_IT1
      00000098H   SFRSYM    DATA     BYTE      SCON0
      000000CFH   SFRSYM    DATA     BYTE      P1MAT
      000000DEH   SFRSYM    DATA     BYTE      CS0PM
      000000F5H   SFRSYM    DATA     BYTE      SMB0ADM
      000000C5H   SFRSYM    DATA     BYTE      ADC0LTL
      000000B8H.6 SFRSYM    DATA     BIT       IP_PSPI0
      000000D6H   SFRSYM    DATA     BYTE      IREF0CN
      000000F4H   SFRSYM    DATA     BYTE      SMB0ADR
      00000088H.4 SFRSYM    DATA     BIT       TCON_TR0
      000000ABH   SFRSYM    DATA     BYTE      CS0MX
      00000088H.6 SFRSYM    DATA     BIT       TCON_TR1
LX51 LINKER/LOCATER V4.66.30.0                                                        04/17/2018  10:08:45  PAGE 23


      000000C2H   SFRSYM    DATA     BYTE      SMB0DAT
      00000099H   SFRSYM    DATA     BYTE      P0DRV
      000000DDH   SFRSYM    DATA     BYTE      CS0SS
      000000C0H.5 SFRSYM    DATA     BIT       SMB0CN_STA
      000000CDH   SFRSYM    DATA     BYTE      TMR2H
      000000A1H   SFRSYM    DATA     BYTE      SPI0CFG
      0000009BH   SFRSYM    DATA     BYTE      P1DRV
      00000095H   SFRSYM    DATA     BYTE      TMR3H
      0000009DH   SFRSYM    DATA     BYTE      P2DRV
      0000009AH   SFRSYM    DATA     BYTE      CRC0CNT
      0000008EH   SFRSYM    DATA     BYTE      CKCON
      000000C8H.2 SFRSYM    DATA     BIT       TMR2CN_TR2
      000000CCH   SFRSYM    DATA     BYTE      TMR2L
      000000ACH   SFRSYM    DATA     BYTE      RTC0ADR
      00000094H   SFRSYM    DATA     BYTE      TMR3L
      000000BBH   SFRSYM    DATA     BYTE      ADC0PWR
      000000D8H   SFRSYM    DATA     BIT       PCA0CN_CCF0
      000000A8H.7 SFRSYM    DATA     BIT       IE_EA
      000000ADH   SFRSYM    DATA     BYTE      RTC0DAT
      000000D8H.1 SFRSYM    DATA     BIT       PCA0CN_CCF1
      000000B6H   SFRSYM    DATA     BYTE      FLSCL
      000000D8H.2 SFRSYM    DATA     BIT       PCA0CN_CCF2
      000000D0H.7 SFRSYM    DATA     BIT       PSW_CY
      000000B0H   SFRSYM    DATA     BIT       CS0CN_CSCMPF
      000000A3H   SFRSYM    DATA     BYTE      SPI0DAT
      000000BDH   SFRSYM    DATA     WORD      ADC0
      0000008EH   SFRSYM    DATA     BYTE      TOFFH
      000000C0H.3 SFRSYM    DATA     BIT       SMB0CN_ACKRQ
      000000D0H   SFRSYM    DATA     BYTE      PSW
      000000DFH   SFRSYM    DATA     BYTE      PCA0PWM
      000000E2H   SFRSYM    DATA     BYTE      REVID
      000000C0H.4 SFRSYM    DATA     BIT       SMB0CN_STO
      0000008DH   SFRSYM    DATA     BYTE      TOFFL
      000000B7H   SFRSYM    DATA     BYTE      FLKEY
      000000BAH   SFRSYM    DATA     BYTE      ADC0AC

      010008D4H   BLOCK     CODE     ---       LVL=0
      010008D4H   LINE      CODE     ---       #20
      010008D4H   LINE      CODE     ---       #22
      010008D7H   LINE      CODE     ---       #23
      010008DAH   LINE      CODE     ---       #24
      010008DDH   LINE      CODE     ---       #25
      010008E0H   LINE      CODE     ---       #26
      010008E3H   LINE      CODE     ---       #27
      ---         BLOCKEND  ---      ---       LVL=0

      01000943H   BLOCK     CODE     ---       LVL=0
      01000943H   LINE      CODE     ---       #35
      01000943H   LINE      CODE     ---       #39
      01000946H   LINE      CODE     ---       #40
      01000949H   LINE      CODE     ---       #46
      ---         BLOCKEND  ---      ---       LVL=0

      0100095FH   BLOCK     CODE     ---       LVL=0
      0100095FH   LINE      CODE     ---       #51
      0100095FH   LINE      CODE     ---       #57
      01000962H   LINE      CODE     ---       #61
      ---         BLOCKEND  ---      ---       LVL=0

      01000963H   BLOCK     CODE     ---       LVL=0
      01000963H   LINE      CODE     ---       #66
      01000963H   LINE      CODE     ---       #75
LX51 LINKER/LOCATER V4.66.30.0                                                        04/17/2018  10:08:45  PAGE 24


      01000966H   LINE      CODE     ---       #79
      ---         BLOCKEND  ---      ---       LVL=0

      01000967H   BLOCK     CODE     ---       LVL=0
      01000967H   LINE      CODE     ---       #84
      01000967H   LINE      CODE     ---       #92
      0100096AH   LINE      CODE     ---       #96
      ---         BLOCKEND  ---      ---       LVL=0

      0100094AH   BLOCK     CODE     ---       LVL=0
      0100094AH   LINE      CODE     ---       #101
      0100094AH   LINE      CODE     ---       #104
      0100094DH   LINE      CODE     ---       #105
      01000950H   LINE      CODE     ---       #126
      ---         BLOCKEND  ---      ---       LVL=0

      01000951H   BLOCK     CODE     ---       LVL=0
      01000951H   LINE      CODE     ---       #131
      01000951H   LINE      CODE     ---       #139
      01000954H   LINE      CODE     ---       #155
      01000957H   LINE      CODE     ---       #163
      ---         BLOCKEND  ---      ---       LVL=0

      0100091BH   BLOCK     CODE     ---       LVL=0
      0100091BH   BLOCK     CODE     NEAR LAB  LVL=1
      00000007H   SYMBOL    DATA     BYTE      TCON_save
      ---         BLOCKEND  ---      ---       LVL=1
      0100091BH   LINE      CODE     ---       #168
      0100091BH   LINE      CODE     ---       #171
      0100091DH   LINE      CODE     ---       #173
      01000920H   LINE      CODE     ---       #190
      01000923H   LINE      CODE     ---       #195
      01000925H   LINE      CODE     ---       #200
      ---         BLOCKEND  ---      ---       LVL=0

      010008BBH   BLOCK     CODE     ---       LVL=0
      010008BBH   BLOCK     CODE     NEAR LAB  LVL=1
      00000007H   SYMBOL    DATA     BYTE      TMR3CN_TR3_save
      ---         BLOCKEND  ---      ---       LVL=1
      010008BBH   LINE      CODE     ---       #205
      010008BBH   LINE      CODE     ---       #208
      010008BFH   LINE      CODE     ---       #210
      010008C2H   LINE      CODE     ---       #220
      010008C5H   LINE      CODE     ---       #227
      010008C8H   LINE      CODE     ---       #234
      010008CBH   LINE      CODE     ---       #241
      010008CEH   LINE      CODE     ---       #248
      010008D1H   LINE      CODE     ---       #253
      010008D3H   LINE      CODE     ---       #257
      ---         BLOCKEND  ---      ---       LVL=0

      0100090EH   BLOCK     CODE     ---       LVL=0
      0100090EH   LINE      CODE     ---       #262
      0100090EH   LINE      CODE     ---       #280
      01000911H   LINE      CODE     ---       #284
      01000914H   LINE      CODE     ---       #293
      01000917H   LINE      CODE     ---       #294
      0100091AH   LINE      CODE     ---       #298
      ---         BLOCKEND  ---      ---       LVL=0

      0100096BH   BLOCK     CODE     ---       LVL=0
      0100096BH   LINE      CODE     ---       #303
LX51 LINKER/LOCATER V4.66.30.0                                                        04/17/2018  10:08:45  PAGE 25


      0100096BH   LINE      CODE     ---       #318
      0100096EH   LINE      CODE     ---       #329
      ---         BLOCKEND  ---      ---       LVL=0

      01000958H   BLOCK     CODE     ---       LVL=0
      01000958H   LINE      CODE     ---       #334
      01000958H   LINE      CODE     ---       #352
      0100095BH   LINE      CODE     ---       #377
      0100095EH   LINE      CODE     ---       #391
      ---         BLOCKEND  ---      ---       LVL=0

      0100096FH   BLOCK     CODE     ---       LVL=0
      0100096FH   LINE      CODE     ---       #392
      0100096FH   LINE      CODE     ---       #397
      01000972H   LINE      CODE     ---       #401
      ---         BLOCKEND  ---      ---       LVL=0

      01000926H   BLOCK     CODE     ---       LVL=0
      01000926H   BLOCK     CODE     NEAR LAB  LVL=1
      00000007H   SYMBOL    DATA     BYTE      TCON_save
      ---         BLOCKEND  ---      ---       LVL=1
      01000926H   LINE      CODE     ---       #402
      01000926H   LINE      CODE     ---       #405
      01000928H   LINE      CODE     ---       #407
      0100092BH   LINE      CODE     ---       #421
      0100092EH   LINE      CODE     ---       #433
      01000930H   LINE      CODE     ---       #438
      ---         BLOCKEND  ---      ---       LVL=0

      01000026H   BLOCK     CODE     ---       LVL=0
      01000026H   LINE      CODE     ---       #444
      01000026H   LINE      CODE     ---       #446
      01000029H   LINE      CODE     ---       #447
      0100002CH   LINE      CODE     ---       #448
      0100002FH   LINE      CODE     ---       #449
      01000032H   LINE      CODE     ---       #450
      01000035H   LINE      CODE     ---       #451
      01000038H   LINE      CODE     ---       #452
      ---         BLOCKEND  ---      ---       LVL=0

      ---         MODULE    ---      ---       INTERRUPTS
      0000001BH   PUBLIC    DATA     BYTE      ADDR_SEND
      010008E6H   PUBLIC    CODE     ---       TIMER3_ISR
      01000729H   PUBLIC    CODE     ---       SMBUS0_ISR
      000000A2H   SFRSYM    DATA     BYTE      SPI0CKR
      00000080H   SFRSYM    DATA     BYTE      P0
      000000D0H.2 SFRSYM    DATA     BIT       PSW_OV
      000000D8H.7 SFRSYM    DATA     BIT       PCA0CN_CF
      00000090H   SFRSYM    DATA     BYTE      P1
      000000F8H.4 SFRSYM    DATA     BIT       SPI0CN_RXOVRN
      000000A0H   SFRSYM    DATA     BYTE      P2
      00000097H   SFRSYM    DATA     BYTE      ADC0CF
      000000C8H   SFRSYM    DATA     BIT       TMR2CN_T2XCLK0
      000000C8H.1 SFRSYM    DATA     BIT       TMR2CN_T2XCLK1
      000000E8H.7 SFRSYM    DATA     BIT       ADC0CN_ADEN
      000000F9H   SFRSYM    DATA     WORD      PCA0
      000000AEH   SFRSYM    DATA     BYTE      RTC0KEY
      000000E6H   SFRSYM    DATA     BYTE      EIE1
      000000E7H   SFRSYM    DATA     BYTE      EIE2
      0000008FH   SFRSYM    DATA     BYTE      PSCTL
      000000E4H   SFRSYM    DATA     BYTE      IT01CF
      000000E3H   SFRSYM    DATA     BYTE      DERIVID
LX51 LINKER/LOCATER V4.66.30.0                                                        04/17/2018  10:08:45  PAGE 26


      000000AFH   SFRSYM    DATA     BYTE      CS0MD1
      000000A7H   SFRSYM    DATA     BYTE      SFRPAGE
      000000F3H   SFRSYM    DATA     BYTE      CS0MD2
      000000E8H   SFRSYM    DATA     BYTE      ADC0CN
      000000A4H   SFRSYM    DATA     BYTE      P0MDOUT
      000000F3H   SFRSYM    DATA     BYTE      CS0MD3
      000000D8H.6 SFRSYM    DATA     BIT       PCA0CN_CR
      000000A5H   SFRSYM    DATA     BYTE      P1MDOUT
      000000CBH   SFRSYM    DATA     BYTE      TMR2RLH
      000000A6H   SFRSYM    DATA     BYTE      P2MDOUT
      000000A8H   SFRSYM    DATA     BYTE      IE
      00000093H   SFRSYM    DATA     BYTE      TMR3RLH
      000000F6H   SFRSYM    DATA     BYTE      EIP1
      000000F8H   SFRSYM    DATA     BIT       SPI0CN_SPIEN
      000000F7H   SFRSYM    DATA     BYTE      EIP2
      00000098H.2 SFRSYM    DATA     BIT       SCON0_RB8
      000000CAH   SFRSYM    DATA     BYTE      TMR2RLL
      000000FCH   SFRSYM    DATA     BYTE      PCA0CPH0
      00000092H   SFRSYM    DATA     BYTE      TMR3RLL
      000000EAH   SFRSYM    DATA     BYTE      PCA0CPH1
      00000098H.3 SFRSYM    DATA     BIT       SCON0_TB8
      000000F0H   SFRSYM    DATA     BIT       B_B0
      00000082H   SFRSYM    DATA     WORD      DP
      000000ECH   SFRSYM    DATA     BYTE      PCA0CPH2
      00000090H.3 SFRSYM    DATA     BIT       YELLOW_LED
      000000B0H.4 SFRSYM    DATA     BIT       CS0CN_CSBUSY
      000000F0H.1 SFRSYM    DATA     BIT       B_B1
      000000E8H.6 SFRSYM    DATA     BIT       ADC0CN_ADBMEN
      000000C3H   SFRSYM    DATA     WORD      ADC0GT
      000000F0H.2 SFRSYM    DATA     BIT       B_B2
      000000FBH   SFRSYM    DATA     BYTE      PCA0CPL0
      000000F0H.3 SFRSYM    DATA     BIT       B_B3
      000000D9H   SFRSYM    DATA     BYTE      PCA0MD
      000000DAH   SFRSYM    DATA     BYTE      PCA0CPM0
      000000E9H   SFRSYM    DATA     BYTE      PCA0CPL1
      000000D8H   SFRSYM    DATA     BYTE      PCA0CN
      000000F0H.4 SFRSYM    DATA     BIT       B_B4
      000000DBH   SFRSYM    DATA     BYTE      PCA0CPM1
      000000EBH   SFRSYM    DATA     BYTE      PCA0CPL2
      000000F0H.5 SFRSYM    DATA     BIT       B_B5
      000000DCH   SFRSYM    DATA     BYTE      PCA0CPM2
      000000B8H   SFRSYM    DATA     BYTE      IP
      000000BCH   SFRSYM    DATA     BYTE      ADC0TK
      000000F0H.6 SFRSYM    DATA     BIT       B_B6
      000000C5H   SFRSYM    DATA     WORD      ADC0LT
      00000098H.5 SFRSYM    DATA     BIT       SCON0_MCE
      000000F0H.7 SFRSYM    DATA     BIT       B_B7
      00000084H   SFRSYM    DATA     BYTE      CRC0CN
      000000E1H   SFRSYM    DATA     BYTE      XBR0
      000000C1H   SFRSYM    DATA     BYTE      SMB0CF
      000000E2H   SFRSYM    DATA     BYTE      XBR1
      000000D2H   SFRSYM    DATA     BYTE      CS0SCAN0
      000000E3H   SFRSYM    DATA     BYTE      XBR2
      000000D3H   SFRSYM    DATA     BYTE      CS0SCAN1
      00000096H   SFRSYM    DATA     BYTE      ADC0MX
      000000C0H.2 SFRSYM    DATA     BIT       SMB0CN_ARBLOST
      000000E0H   SFRSYM    DATA     BIT       ACC_ACC0
      000000D1H   SFRSYM    DATA     BYTE      REF0CN
      000000F8H.1 SFRSYM    DATA     BIT       SPI0CN_TXBMT
      000000E0H.1 SFRSYM    DATA     BIT       ACC_ACC1
      000000C9H   SFRSYM    DATA     BYTE      REG0CN
      00000085H   SFRSYM    DATA     BYTE      CRC0IN
LX51 LINKER/LOCATER V4.66.30.0                                                        04/17/2018  10:08:45  PAGE 27


      000000C0H   SFRSYM    DATA     BIT       SMB0CN_SI
      000000E0H.2 SFRSYM    DATA     BIT       ACC_ACC2
      000000E0H.3 SFRSYM    DATA     BIT       ACC_ACC3
      00000081H   SFRSYM    DATA     BYTE      SP
      000000E0H.4 SFRSYM    DATA     BIT       ACC_ACC4
      000000E0H.5 SFRSYM    DATA     BIT       ACC_ACC5
      000000C0H   SFRSYM    DATA     BYTE      SMB0CN
      000000E0H.6 SFRSYM    DATA     BIT       ACC_ACC6
      000000CCH   SFRSYM    DATA     WORD      TMR2
      000000E0H.7 SFRSYM    DATA     BIT       ACC_ACC7
      00000094H   SFRSYM    DATA     WORD      TMR3
      000000FFH   SFRSYM    DATA     BYTE      VDM0CN
      000000F1H   SFRSYM    DATA     BYTE      P0MDIN
      0000009DH   SFRSYM    DATA     BYTE      CPT0MD
      0000009BH   SFRSYM    DATA     BYTE      CPT0CN
      00000098H.4 SFRSYM    DATA     BIT       SCON0_REN
      000000F2H   SFRSYM    DATA     BYTE      P1MDIN
      000000FEH   SFRSYM    DATA     BYTE      CS0THH
      000000B5H   SFRSYM    DATA     BYTE      PMU0CF
      000000C8H.7 SFRSYM    DATA     BIT       TMR2CN_TF2H
      000000C8H.3 SFRSYM    DATA     BIT       TMR2CN_T2SPLIT
      000000C7H   SFRSYM    DATA     BYTE      P0MASK
      000000F8H   SFRSYM    DATA     BYTE      SPI0CN
      000000BFH   SFRSYM    DATA     BYTE      P1MASK
      000000FDH   SFRSYM    DATA     BYTE      CS0THL
      000000D0H.3 SFRSYM    DATA     BIT       PSW_RS0
      00000087H   SFRSYM    DATA     BYTE      PCON
      000000C8H.6 SFRSYM    DATA     BIT       TMR2CN_TF2L
      000000D0H.4 SFRSYM    DATA     BIT       PSW_RS1
      000000E8H   SFRSYM    DATA     BIT       ADC0CN_ADCM0
      000000B0H.1 SFRSYM    DATA     BIT       CS0CN_CSPME
      000000E8H.1 SFRSYM    DATA     BIT       ADC0CN_ADCM1
      000000E8H.2 SFRSYM    DATA     BIT       ADC0CN_ADCM2
      000000E8H.3 SFRSYM    DATA     BIT       ADC0CN_ADWINT
      00000089H   SFRSYM    DATA     BYTE      TMOD
      00000088H   SFRSYM    DATA     BYTE      TCON
      000000B5H   SFRSYM    DATA     BYTE      PMU0MD
      000000E8H.4 SFRSYM    DATA     BIT       ADC0CN_ADBUSY
      000000CEH   SFRSYM    DATA     BYTE      PMU0FL
      0000009CH   SFRSYM    DATA     BYTE      CRC0FLIP
      000000F8H.5 SFRSYM    DATA     BIT       SPI0CN_MODF
      000000D0H   SFRSYM    DATA     BIT       PSW_PARITY
      000000A8H.4 SFRSYM    DATA     BIT       IE_ES0
      000000A8H.1 SFRSYM    DATA     BIT       IE_ET0
      000000B0H.6 SFRSYM    DATA     BIT       CS0CN_CSEOS
      000000C8H   SFRSYM    DATA     BYTE      TMR2CN
      000000A8H.3 SFRSYM    DATA     BIT       IE_ET1
      00000091H   SFRSYM    DATA     BYTE      TMR3CN
      000000D4H   SFRSYM    DATA     BYTE      P0SKIP
      000000A8H.5 SFRSYM    DATA     BIT       IE_ET2
      000000D5H   SFRSYM    DATA     BYTE      P1SKIP
      000000A8H   SFRSYM    DATA     BIT       IE_EX0
      000000B0H.5 SFRSYM    DATA     BIT       CS0CN_CSINT
      000000E5H   SFRSYM    DATA     BYTE      FLWR
      000000C8H.4 SFRSYM    DATA     BIT       TMR2CN_TF2CEN
      000000A8H.2 SFRSYM    DATA     BIT       IE_EX1
      0000009FH   SFRSYM    DATA     BYTE      CPT0MX
      00000098H.7 SFRSYM    DATA     BIT       SCON0_SMODE
      000000B3H   SFRSYM    DATA     BYTE      OSCICL
      000000A9H   SFRSYM    DATA     BYTE      CLKSEL
      000000B2H   SFRSYM    DATA     BYTE      OSCICN
      000000F0H   SFRSYM    DATA     BYTE      B
LX51 LINKER/LOCATER V4.66.30.0                                                        04/17/2018  10:08:45  PAGE 28


      000000BEH   SFRSYM    DATA     BYTE      ADC0H
      000000F8H.7 SFRSYM    DATA     BIT       SPI0CN_SPIF
      0000009EH   SFRSYM    DATA     BYTE      CRC0AUTO
      000000B0H.3 SFRSYM    DATA     BIT       CS0CN_CSCMPEN
      000000CAH   SFRSYM    DATA     WORD      TMR2RL
      000000BDH   SFRSYM    DATA     BYTE      ADC0L
      000000C8H.5 SFRSYM    DATA     BIT       TMR2CN_TF2LEN
      000000F8H.6 SFRSYM    DATA     BIT       SPI0CN_WCOL
      00000092H   SFRSYM    DATA     WORD      TMR3RL
      000000F8H.2 SFRSYM    DATA     BIT       SPI0CN_NSSMD0
      000000E0H   SFRSYM    DATA     BYTE      ACC
      000000F8H.3 SFRSYM    DATA     BIT       SPI0CN_NSSMD1
      000000FBH   SFRSYM    DATA     WORD      PCA0CP0
      000000E9H   SFRSYM    DATA     WORD      PCA0CP1
      000000EBH   SFRSYM    DATA     WORD      PCA0CP2
      0000008CH   SFRSYM    DATA     BYTE      TH0
      000000B8H.4 SFRSYM    DATA     BIT       IP_PS0
      0000008DH   SFRSYM    DATA     BYTE      TH1
      000000FAH   SFRSYM    DATA     BYTE      PCA0H
      000000B8H.1 SFRSYM    DATA     BIT       IP_PT0
      000000B8H.3 SFRSYM    DATA     BIT       IP_PT1
      000000B8H.5 SFRSYM    DATA     BIT       IP_PT2
      0000008AH   SFRSYM    DATA     BYTE      TL0
      000000B1H   SFRSYM    DATA     BYTE      OSCXCN
      000000AAH   SFRSYM    DATA     BYTE      CS0CF
      000000D0H.5 SFRSYM    DATA     BIT       PSW_F0
      000000A8H.6 SFRSYM    DATA     BIT       IE_ESPI0
      0000008BH   SFRSYM    DATA     BYTE      TL1
      000000F9H   SFRSYM    DATA     BYTE      PCA0L
      000000D0H.1 SFRSYM    DATA     BIT       PSW_F1
      00000080H   SFRSYM    DATA     BIT       P0_B0
      000000B8H   SFRSYM    DATA     BIT       IP_PX0
      00000090H   SFRSYM    DATA     BIT       P1_B0
      00000080H.1 SFRSYM    DATA     BIT       P0_B1
      000000B8H.2 SFRSYM    DATA     BIT       IP_PX1
      000000EEH   SFRSYM    DATA     BYTE      CS0DH
      00000088H.1 SFRSYM    DATA     BIT       TCON_IE0
      000000C0H.7 SFRSYM    DATA     BIT       SMB0CN_MASTER
      00000090H.1 SFRSYM    DATA     BIT       P1_B1
      00000080H.2 SFRSYM    DATA     BIT       P0_B2
      00000088H.3 SFRSYM    DATA     BIT       TCON_IE1
      000000C0H.1 SFRSYM    DATA     BIT       SMB0CN_ACK
      00000090H.2 SFRSYM    DATA     BIT       P1_B2
      00000080H.3 SFRSYM    DATA     BIT       P0_B3
      00000090H.3 SFRSYM    DATA     BIT       P1_B3
      00000080H.4 SFRSYM    DATA     BIT       P0_B4
      00000090H.4 SFRSYM    DATA     BIT       P1_B4
      00000080H.5 SFRSYM    DATA     BIT       P0_B5
      000000EDH   SFRSYM    DATA     BYTE      CS0DL
      00000090H.5 SFRSYM    DATA     BIT       P1_B5
      00000080H.6 SFRSYM    DATA     BIT       P0_B6
      000000B0H   SFRSYM    DATA     BYTE      CS0CN
      000000C0H.6 SFRSYM    DATA     BIT       SMB0CN_TXMODE
      00000090H.6 SFRSYM    DATA     BIT       P1_B6
      00000080H.7 SFRSYM    DATA     BIT       P0_B7
      00000090H.7 SFRSYM    DATA     BIT       P1_B7
      000000A0H.7 SFRSYM    DATA     BIT       P2_B7
      00000083H   SFRSYM    DATA     BYTE      DPH
      000000E8H.5 SFRSYM    DATA     BIT       ADC0CN_ADINT
      000000C4H   SFRSYM    DATA     BYTE      ADC0GTH
      000000D0H.6 SFRSYM    DATA     BIT       PSW_AC
      000000DEH   SFRSYM    DATA     BYTE      CS0SE
LX51 LINKER/LOCATER V4.66.30.0                                                        04/17/2018  10:08:45  PAGE 29


      00000088H.5 SFRSYM    DATA     BIT       TCON_TF0
      00000098H   SFRSYM    DATA     BIT       SCON0_RI
      00000082H   SFRSYM    DATA     BYTE      DPL
      00000088H.7 SFRSYM    DATA     BIT       TCON_TF1
      00000099H   SFRSYM    DATA     BYTE      SBUF0
      000000B9H   SFRSYM    DATA     BYTE      IREF0CF
      000000C3H   SFRSYM    DATA     BYTE      ADC0GTL
      00000098H.1 SFRSYM    DATA     BIT       SCON0_TI
      000000C6H   SFRSYM    DATA     BYTE      ADC0LTH
      00000088H   SFRSYM    DATA     BIT       TCON_IT0
      000000B0H.7 SFRSYM    DATA     BIT       CS0CN_CSEN
      000000EFH   SFRSYM    DATA     BYTE      RSTSRC
      000000D7H   SFRSYM    DATA     BYTE      P0MAT
      00000086H   SFRSYM    DATA     BYTE      CRC0DAT
      00000088H.2 SFRSYM    DATA     BIT       TCON_IT1
      00000098H   SFRSYM    DATA     BYTE      SCON0
      000000CFH   SFRSYM    DATA     BYTE      P1MAT
      000000DEH   SFRSYM    DATA     BYTE      CS0PM
      000000F5H   SFRSYM    DATA     BYTE      SMB0ADM
      000000C5H   SFRSYM    DATA     BYTE      ADC0LTL
      000000B8H.6 SFRSYM    DATA     BIT       IP_PSPI0
      000000D6H   SFRSYM    DATA     BYTE      IREF0CN
      000000F4H   SFRSYM    DATA     BYTE      SMB0ADR
      00000088H.4 SFRSYM    DATA     BIT       TCON_TR0
      000000ABH   SFRSYM    DATA     BYTE      CS0MX
      00000088H.6 SFRSYM    DATA     BIT       TCON_TR1
      000000C2H   SFRSYM    DATA     BYTE      SMB0DAT
      00000099H   SFRSYM    DATA     BYTE      P0DRV
      000000DDH   SFRSYM    DATA     BYTE      CS0SS
      000000C0H.5 SFRSYM    DATA     BIT       SMB0CN_STA
      000000CDH   SFRSYM    DATA     BYTE      TMR2H
      000000A1H   SFRSYM    DATA     BYTE      SPI0CFG
      0000009BH   SFRSYM    DATA     BYTE      P1DRV
      00000095H   SFRSYM    DATA     BYTE      TMR3H
      0000009DH   SFRSYM    DATA     BYTE      P2DRV
      0000009AH   SFRSYM    DATA     BYTE      CRC0CNT
      0000008EH   SFRSYM    DATA     BYTE      CKCON
      000000C8H.2 SFRSYM    DATA     BIT       TMR2CN_TR2
      000000CCH   SFRSYM    DATA     BYTE      TMR2L
      000000ACH   SFRSYM    DATA     BYTE      RTC0ADR
      00000094H   SFRSYM    DATA     BYTE      TMR3L
      000000BBH   SFRSYM    DATA     BYTE      ADC0PWR
      000000D8H   SFRSYM    DATA     BIT       PCA0CN_CCF0
      000000A8H.7 SFRSYM    DATA     BIT       IE_EA
      000000ADH   SFRSYM    DATA     BYTE      RTC0DAT
      000000D8H.1 SFRSYM    DATA     BIT       PCA0CN_CCF1
      000000B6H   SFRSYM    DATA     BYTE      FLSCL
      000000D8H.2 SFRSYM    DATA     BIT       PCA0CN_CCF2
      000000D0H.7 SFRSYM    DATA     BIT       PSW_CY
      000000B0H   SFRSYM    DATA     BIT       CS0CN_CSCMPF
      000000A3H   SFRSYM    DATA     BYTE      SPI0DAT
      000000BDH   SFRSYM    DATA     WORD      ADC0
      0000008EH   SFRSYM    DATA     BYTE      TOFFH
      000000C0H.3 SFRSYM    DATA     BIT       SMB0CN_ACKRQ
      000000D0H   SFRSYM    DATA     BYTE      PSW
      000000DFH   SFRSYM    DATA     BYTE      PCA0PWM
      000000E2H   SFRSYM    DATA     BYTE      REVID
      000000C0H.4 SFRSYM    DATA     BIT       SMB0CN_STO
      0000008DH   SFRSYM    DATA     BYTE      TOFFL
      000000B7H   SFRSYM    DATA     BYTE      FLKEY
      000000BAH   SFRSYM    DATA     BYTE      ADC0AC

LX51 LINKER/LOCATER V4.66.30.0                                                        04/17/2018  10:08:45  PAGE 30


      01000729H   BLOCK     CODE     ---       LVL=0
      0100072DH   BLOCK     CODE     NEAR LAB  LVL=1
      00000020H.2 SYMBOL    BIT      BIT       FAIL
      ---         BLOCKEND  ---      ---       LVL=1
      01000729H   LINE      CODE     ---       #47
      0100072DH   LINE      CODE     ---       #49
      0100072FH   LINE      CODE     ---       #54
      01000735H   LINE      CODE     ---       #55
      01000735H   LINE      CODE     ---       #57
      01000745H   LINE      CODE     ---       #58
      01000745H   LINE      CODE     ---       #60
      01000745H   LINE      CODE     ---       #64
      01000748H   LINE      CODE     ---       #65
      0100074BH   LINE      CODE     ---       #67
      01000751H   LINE      CODE     ---       #68
      01000753H   LINE      CODE     ---       #69
      01000756H   LINE      CODE     ---       #70
      01000759H   LINE      CODE     ---       #72
      0100075BH   LINE      CODE     ---       #75
      0100075BH   LINE      CODE     ---       #76
      0100075EH   LINE      CODE     ---       #77
      0100075EH   LINE      CODE     ---       #78
      01000762H   LINE      CODE     ---       #79
      01000762H   LINE      CODE     ---       #83
      01000765H   LINE      CODE     ---       #84
      01000765H   LINE      CODE     ---       #86
      0100076AH   LINE      CODE     ---       #87
      0100076DH   LINE      CODE     ---       #88
      0100076DH   LINE      CODE     ---       #89
      01000772H   LINE      CODE     ---       #90
      01000775H   LINE      CODE     ---       #91
      01000775H   LINE      CODE     ---       #93
      01000775H   LINE      CODE     ---       #94
      0100077AH   LINE      CODE     ---       #95
      0100077DH   LINE      CODE     ---       #96
      0100077FH   LINE      CODE     ---       #97
      01000784H   LINE      CODE     ---       #98
      01000787H   LINE      CODE     ---       #101
      01000787H   LINE      CODE     ---       #102
      0100078BH   LINE      CODE     ---       #103
      0100078DH   LINE      CODE     ---       #105
      0100078FH   LINE      CODE     ---       #107
      0100078FH   LINE      CODE     ---       #111
      0100078FH   LINE      CODE     ---       #113
      0100078FH   LINE      CODE     ---       #115
      01000794H   LINE      CODE     ---       #116
      01000796H   LINE      CODE     ---       #117
      01000798H   LINE      CODE     ---       #118
      01000798H   LINE      CODE     ---       #119
      0100079AH   LINE      CODE     ---       #121
      0100079AH   LINE      CODE     ---       #122
      0100079CH   LINE      CODE     ---       #123
      0100079EH   LINE      CODE     ---       #124
      0100079EH   LINE      CODE     ---       #125
      010007A0H   LINE      CODE     ---       #128
      010007A0H   LINE      CODE     ---       #129
      010007A3H   LINE      CODE     ---       #130
      010007A5H   LINE      CODE     ---       #131
      010007A7H   LINE      CODE     ---       #132
      010007A9H   LINE      CODE     ---       #134
      010007ABH   LINE      CODE     ---       #135
      010007ADH   LINE      CODE     ---       #136
LX51 LINKER/LOCATER V4.66.30.0                                                        04/17/2018  10:08:45  PAGE 31


      010007AFH   LINE      CODE     ---       #138
      010007AFH   LINE      CODE     ---       #139
      010007B1H   LINE      CODE     ---       #141
      010007B3H   LINE      CODE     ---       #143
      010007B3H   LINE      CODE     ---       #144
      010007B3H   LINE      CODE     ---       #146
      010007B3H   LINE      CODE     ---       #148
      010007B5H   LINE      CODE     ---       #149
      010007B5H   LINE      CODE     ---       #151
      010007B8H   LINE      CODE     ---       #152
      010007B8H   LINE      CODE     ---       #153
      010007BBH   LINE      CODE     ---       #154
      010007BEH   LINE      CODE     ---       #155
      010007C0H   LINE      CODE     ---       #156
      010007C2H   LINE      CODE     ---       #157
      010007C4H   LINE      CODE     ---       #159
      010007C6H   LINE      CODE     ---       #161
      010007C8H   LINE      CODE     ---       #163
      010007C8H   LINE      CODE     ---       #165
      010007CAH   LINE      CODE     ---       #166
      ---         BLOCKEND  ---      ---       LVL=0

      010008E6H   BLOCK     CODE     ---       LVL=0
      010008E6H   LINE      CODE     ---       #178
      010008E6H   LINE      CODE     ---       #180
      010008E9H   LINE      CODE     ---       #181
      010008ECH   LINE      CODE     ---       #182
      010008EFH   LINE      CODE     ---       #183
      010008F1H   LINE      CODE     ---       #184
      010008F3H   LINE      CODE     ---       #185
      ---         BLOCKEND  ---      ---       LVL=0

      ---         MODULE    ---      ---       ?C_STARTUP
      01000000H   PUBLIC    CODE     NEAR LAB  ?C_STARTUP
      000000E0H   SFRSYM    DATA     BYTE      ACC
      000000F0H   SFRSYM    DATA     BYTE      B
      00000083H   SFRSYM    DATA     BYTE      DPH
      00000082H   SFRSYM    DATA     BYTE      DPL
      000000A0H   SFRSYM    DATA     BYTE      PPAGE_SFR
      00000081H   SFRSYM    DATA     BYTE      SP
      00000000H   SYMBOL    NUMBER   ---       IBPSTACK
      00000100H   SYMBOL    NUMBER   ---       IBPSTACKTOP
      00000080H   SYMBOL    NUMBER   ---       IDATALEN
      010007D5H   SYMBOL    CODE     NEAR LAB  IDATALOOP
      00000000H   SYMBOL    NUMBER   ---       PBPSTACK
      00000100H   SYMBOL    NUMBER   ---       PBPSTACKTOP
      00000000H   SYMBOL    NUMBER   ---       PDATALEN
      00000000H   SYMBOL    NUMBER   ---       PDATASTART
      00000000H   SYMBOL    NUMBER   ---       PPAGE
      00000000H   SYMBOL    NUMBER   ---       PPAGEENABLE
      010007CFH   SYMBOL    CODE     NEAR LAB  STARTUP1
      00000000H   SYMBOL    NUMBER   ---       XBPSTACK
      00010000H   SYMBOL    NUMBER   ---       XBPSTACKTOP
      00000000H   SYMBOL    NUMBER   ---       XDATALEN
      00000000H   SYMBOL    NUMBER   ---       XDATASTART

      01000000H   BLOCK     CODE     NEAR LAB  LVL=0
      01000000H   LINE      CODE     ---       #126
      ---         BLOCKEND  ---      ---       LVL=0

      010007CFH   BLOCK     CODE     NEAR LAB  LVL=0
      010007CFH   LINE      CODE     ---       #134
LX51 LINKER/LOCATER V4.66.30.0                                                        04/17/2018  10:08:45  PAGE 32


      010007D2H   LINE      CODE     ---       #138
      010007D4H   LINE      CODE     ---       #139
      010007D5H   LINE      CODE     ---       #140
      010007D6H   LINE      CODE     ---       #141
      010007D8H   LINE      CODE     ---       #190
      010007DBH   LINE      CODE     ---       #201
      ---         BLOCKEND  ---      ---       LVL=0

      ---         MODULE    ---      ---       ?C_INIT
      01000819H   PUBLIC    CODE     ---       ?C_START

      ---         MODULE    ---      ---       ?C?CLDPTR
      010002D1H   PUBLIC    CODE     ---       ?C?CLDPTR

      ---         MODULE    ---      ---       ?C?CSTPTR
      010002EAH   PUBLIC    CODE     ---       ?C?CSTPTR

      ---         MODULE    ---      ---       ?C?IMUL
      010002FCH   PUBLIC    CODE     ---       ?C?IMUL

      ---         MODULE    ---      ---       ?C?LMUL
      0100030EH   PUBLIC    CODE     ---       ?C?LMUL

      ---         MODULE    ---      ---       ?C?ULDIV
      01000399H   PUBLIC    CODE     ---       ?C?ULDIV

      ---         MODULE    ---      ---       ?C?SLDIV
      0100085EH   PUBLIC    CODE     ---       ?C?SLDIV

      ---         MODULE    ---      ---       ?C?SLCMP
      0100042BH   PUBLIC    CODE     ---       ?C?SLCMP

      ---         MODULE    ---      ---       ?C?ULCMP
      01000441H   PUBLIC    CODE     ---       ?C?ULCMP

      ---         MODULE    ---      ---       ?C?SLSHR
      01000452H   PUBLIC    CODE     ---       ?C?SLSHR

      ---         MODULE    ---      ---       ?C?LSHL
      01000466H   PUBLIC    CODE     ---       ?C?LSHL

Program Size: data=105.3 xdata=1 const=0 code=2420
LX51 RUN COMPLETE.  0 WARNING(S),  0 ERROR(S)
