LX51 LINKER/LOCATER V4.66.30.0                                                          05/12/2018  01:06:07  PAGE 1


LX51 LINKER/LOCATER V4.66.30.0, INVOKED BY:
C:\SILICONLABS\SIMPLICITYSTUDIO\V4\DEVELOPER\TOOLCHAINS\KEIL_8051\9.53\BIN\LX51.EXE ./src/F99x_SMBus_Master.OBJ, ./src/I
>> nitDevice.OBJ, ./src/Interrupts.OBJ, ./src/SILABS_STARTUP.OBJ TO F99X-98X_SMBUS_MASTER.OMF.CRBUILD REMOVEUNUSED PRINT
>>  (.\F99x-98x_SMBus_Master.m51) PAGEWIDTH (120) PAGELENGTH (65) CLASSES (ECODE (C:0X0-C:0X1FFE), HCONST (C:0X0-C:0X1FF
>> E), XDATA (X:0X0-X:0XFF), HDATA (X:0X0-X:0XFF))


CPU MODE:     8051 MODE
MEMORY MODEL: SMALL WITH FLOATING POINT ARITHMETIC


INPUT MODULES INCLUDED:
  ./src/F99x_SMBus_Master.OBJ (F99X_SMBUS_MASTER)
         COMMENT TYPE 0: C51 V9.53.0.0
  ./src/InitDevice.OBJ (INITDEVICE)
         COMMENT TYPE 0: C51 V9.53.0.0
  ./src/Interrupts.OBJ (INTERRUPTS)
         COMMENT TYPE 0: C51 V9.53.0.0
  ./src/SILABS_STARTUP.OBJ (?C_STARTUP)
         COMMENT TYPE 0: AX51 V3.12.0.0
  C:\SILICONLABS\SIMPLICITYSTUDIO\V4\DEVELOPER\TOOLCHAINS\KEIL_8051\9.53\LIB\C51FPS.LIB (?C?FPADD)
         COMMENT TYPE 1: A51 / ASM51 Assembler
  C:\SILICONLABS\SIMPLICITYSTUDIO\V4\DEVELOPER\TOOLCHAINS\KEIL_8051\9.53\LIB\C51FPS.LIB (?C?FPMUL)
         COMMENT TYPE 1: A51 / ASM51 Assembler
  C:\SILICONLABS\SIMPLICITYSTUDIO\V4\DEVELOPER\TOOLCHAINS\KEIL_8051\9.53\LIB\C51FPS.LIB (?C?FPDIV)
         COMMENT TYPE 1: A51 / ASM51 Assembler
  C:\SILICONLABS\SIMPLICITYSTUDIO\V4\DEVELOPER\TOOLCHAINS\KEIL_8051\9.53\LIB\C51FPS.LIB (?C?FCAST)
         COMMENT TYPE 1: A51 / ASM51 Assembler
  C:\SILICONLABS\SIMPLICITYSTUDIO\V4\DEVELOPER\TOOLCHAINS\KEIL_8051\9.53\LIB\C51FPS.LIB (?C?CASTF)
         COMMENT TYPE 1: A51 / ASM51 Assembler
  C:\SILICONLABS\SIMPLICITYSTUDIO\V4\DEVELOPER\TOOLCHAINS\KEIL_8051\9.53\LIB\C51FPS.LIB (?C?FPGETOPN)
         COMMENT TYPE 1: A51 / ASM51 Assembler
  C:\SILICONLABS\SIMPLICITYSTUDIO\V4\DEVELOPER\TOOLCHAINS\KEIL_8051\9.53\LIB\C51S.LIB (?C_INIT)
         COMMENT TYPE 1: A51 / ASM51 Assembler
  C:\SILICONLABS\SIMPLICITYSTUDIO\V4\DEVELOPER\TOOLCHAINS\KEIL_8051\9.53\LIB\C51S.LIB (?C?CLDPTR)
         COMMENT TYPE 1: A51 / ASM51 Assembler
  C:\SILICONLABS\SIMPLICITYSTUDIO\V4\DEVELOPER\TOOLCHAINS\KEIL_8051\9.53\LIB\C51S.LIB (?C?CSTPTR)
         COMMENT TYPE 1: A51 / ASM51 Assembler
  C:\SILICONLABS\SIMPLICITYSTUDIO\V4\DEVELOPER\TOOLCHAINS\KEIL_8051\9.53\LIB\C51S.LIB (?C?IMUL)
         COMMENT TYPE 1: A51 / ASM51 Assembler
  C:\SILICONLABS\SIMPLICITYSTUDIO\V4\DEVELOPER\TOOLCHAINS\KEIL_8051\9.53\LIB\C51S.LIB (?C?UIDIV)
         COMMENT TYPE 1: A51 / ASM51 Assembler
  C:\SILICONLABS\SIMPLICITYSTUDIO\V4\DEVELOPER\TOOLCHAINS\KEIL_8051\9.53\LIB\C51S.LIB (?C?LMUL)
         COMMENT TYPE 1: A51 / ASM51 Assembler
  C:\SILICONLABS\SIMPLICITYSTUDIO\V4\DEVELOPER\TOOLCHAINS\KEIL_8051\9.53\LIB\C51S.LIB (?C?ULDIV)
         COMMENT TYPE 1: A51 / ASM51 Assembler
  C:\SILICONLABS\SIMPLICITYSTUDIO\V4\DEVELOPER\TOOLCHAINS\KEIL_8051\9.53\LIB\C51S.LIB (?C?SLDIV)
         COMMENT TYPE 1: A51 / ASM51 Assembler
  C:\SILICONLABS\SIMPLICITYSTUDIO\V4\DEVELOPER\TOOLCHAINS\KEIL_8051\9.53\LIB\C51S.LIB (?C?LNEG)
         COMMENT TYPE 1: A51 / ASM51 Assembler
  C:\SILICONLABS\SIMPLICITYSTUDIO\V4\DEVELOPER\TOOLCHAINS\KEIL_8051\9.53\LIB\C51S.LIB (?C?SLCMP)
         COMMENT TYPE 1: A51 / ASM51 Assembler
  C:\SILICONLABS\SIMPLICITYSTUDIO\V4\DEVELOPER\TOOLCHAINS\KEIL_8051\9.53\LIB\C51S.LIB (?C?ULCMP)
         COMMENT TYPE 1: A51 / ASM51 Assembler
  C:\SILICONLABS\SIMPLICITYSTUDIO\V4\DEVELOPER\TOOLCHAINS\KEIL_8051\9.53\LIB\C51S.LIB (?C?SLSHR)
         COMMENT TYPE 1: A51 / ASM51 Assembler
  C:\SILICONLABS\SIMPLICITYSTUDIO\V4\DEVELOPER\TOOLCHAINS\KEIL_8051\9.53\LIB\C51S.LIB (?C?LSHL)
         COMMENT TYPE 1: A51 / ASM51 Assembler


ACTIVE MEMORY CLASSES OF MODULE:  F99X-98X_SMBUS_MASTER.OMF.CRBUILD (F99X_SMBUS_MASTER)

BASE        START       END         USED      MEMORY CLASS
LX51 LINKER/LOCATER V4.66.30.0                                                        05/12/2018  01:06:07  PAGE 2


==========================================================
C:000000H   C:000000H   C:001FFEH             ECODE
B00:0000H   C:000000H   C:001FFEH             HCONST
X:000000H   X:000000H   X:0000FFH   000001H   XDATA
X:000000H   X:000000H   X:0000FFH             HDATA
C:000000H   C:000000H   C:00FFFFH   001288H   CODE
I:000000H   I:000000H   I:00007FH   000066H   DATA
I:000020H.0 I:000020H.0 I:00002FH.7 000000H.5 BIT
I:000000H   I:000000H   I:0000FFH   000001H   IDATA


MEMORY MAP OF MODULE:  F99X-98X_SMBUS_MASTER.OMF.CRBUILD (F99X_SMBUS_MASTER)


START     STOP      LENGTH    ALIGN  RELOC    MEMORY CLASS   SEGMENT NAME
=========================================================================

* * * * * * * * * * *   D A T A   M E M O R Y   * * * * * * * * * * * * *
000000H   000007H   000008H   ---    AT..     DATA           "REG BANK 0"
000008H   000008H   000001H   BYTE   UNIT     DATA           ?DT?INTERRUPTS
000009H.0 00001FH.7 000017H.0 ---    ---      **GAP**
000020H.0 000020H.3 000000H.4 BIT    UNIT     BIT            ?BI?F99X_SMBUS_MASTER
000020H.4 000020H.4 000000H.1 BIT    UNIT     BIT            _BIT_GROUP_
000020H.5 000020H   000000H.3 ---    ---      **GAP**
000021H   000056H   000036H   BYTE   UNIT     DATA           ?DT?F99X_SMBUS_MASTER
000057H   00007DH   000027H   BYTE   UNIT     DATA           _DATA_GROUP_
00007EH   00007EH   000001H   BYTE   UNIT     IDATA          ?STACK

* * * * * * * * * * *   C O D E   M E M O R Y   * * * * * * * * * * * * *
000000H   000002H   000003H   ---    OFFS..   CODE           ?CO?SILABS_STARTUP?3
000003H   000023H   000021H   BYTE   UNIT     CODE           ?PR?_SMB_READ_REG?F99X_SMBUS_MASTER
000024H   00002AH   000007H   BYTE   UNIT     CODE           ?PR?PCA_0_ENTER_DEFAULTMODE_FROM_RESET?INITDEVICE
00002BH   00002DH   000003H   BYTE   OFFS..   CODE           ?F99X_SMBUS_MASTER?0002B
00002EH   00003AH   00000DH   BYTE   UNIT     CODE           ?PR?UART_INIT?F99X_SMBUS_MASTER
00003BH   00003DH   000003H   BYTE   OFFS..   CODE           ?INTERRUPTS?0003B
00003EH   0005A5H   000568H   BYTE   UNIT     CODE           ?C?LIB_CODE
0005A6H   000880H   0002DBH   BYTE   UNIT     CODE           ?PR?_GETHUM?F99X_SMBUS_MASTER
000881H   000AEBH   00026BH   BYTE   UNIT     CODE           ?PR?_GETGAS?F99X_SMBUS_MASTER
000AECH   000C9EH   0001B3H   BYTE   UNIT     CODE           ?PR?GETHEAT?F99X_SMBUS_MASTER
000C9FH   000DE2H   000144H   BYTE   UNIT     CODE           ?PR?MAIN?F99X_SMBUS_MASTER
000DE3H   000EFEH   00011CH   BYTE   UNIT     CODE           ?PR?_GETTEMP?F99X_SMBUS_MASTER
000EFFH   001003H   000105H   BYTE   UNIT     CODE           ?PR?SMBUS0_ISR?INTERRUPTS
001004H   001092H   00008FH   BYTE   UNIT     CODE           ?C_C51STARTUP
001093H   0010FBH   000069H   BYTE   UNIT     CODE           ?PR?READ_CO2?F99X_SMBUS_MASTER
0010FCH   001146H   00004BH   BYTE   UNIT     CODE           ?PR?BME680INIT?F99X_SMBUS_MASTER
001147H   00118AH   000044H   BYTE   UNIT     CODE           ?C?LDIV
00118BH   0011ABH   000021H   BYTE   UNIT     CODE           ?PR?TIMER2_ISR?F99X_SMBUS_MASTER
0011ACH   0011C4H   000019H   BYTE   UNIT     CODE           ?PR?TIMER16_2_ENTER_DEFAULTMODE_FROM_RESET?INITDEVICE
0011C5H   0011DCH   000018H   BYTE   UNIT     CODE           ?C_INITSEG
0011DDH   0011EEH   000012H   BYTE   UNIT     CODE           ?PR?ADC?F99X_SMBUS_MASTER
0011EFH   001200H   000012H   BYTE   UNIT     CODE           ?PR?ENTER_DEFAULTMODE_FROM_RESET?INITDEVICE
001201H   001212H   000012H   BYTE   UNIT     CODE           ?PR?ENTER_MODE2_FROM_DEFAULTMODE?INITDEVICE
001213H   001223H   000011H   BYTE   UNIT     CODE           ?PR?_SMB_WRITE_REG?F99X_SMBUS_MASTER
001224H   001230H   00000DH   BYTE   UNIT     CODE           ?PR?SMB_WRITE?F99X_SMBUS_MASTER
001231H   00123DH   00000DH   BYTE   UNIT     CODE           ?PR?SMB_READ?F99X_SMBUS_MASTER
00123EH   00124AH   00000DH   BYTE   UNIT     CODE           ?PR?TIMER_SETUP_0_ENTER_MODE2_FROM_DEFAULTMODE?INITDEVICE
00124BH   001255H   00000BH   BYTE   UNIT     CODE           ?PR?TIMER00_0_ENTER_MODE2_FROM_DEFAULTMODE?INITDEVICE
001256H   00125CH   000007H   BYTE   UNIT     CODE           ?PR?PORTS_1_ENTER_MODE2_FROM_DEFAULTMODE?INITDEVICE
00125DH   001263H   000007H   BYTE   UNIT     CODE           ?PR?PBCFG_0_ENTER_MODE2_FROM_DEFAULTMODE?INITDEVICE
001264H   00126AH   000007H   BYTE   UNIT     CODE           ?PR?INTERRUPT_0_ENTER_MODE2_FROM_DEFAULTMODE?INITDEVICE
00126BH   00126EH   000004H   BYTE   UNIT     CODE           ?PR?SLEEPMODE?F99X_SMBUS_MASTER
00126FH   001272H   000004H   BYTE   UNIT     CODE           ?PR?WAKEUP?F99X_SMBUS_MASTER
LX51 LINKER/LOCATER V4.66.30.0                                                        05/12/2018  01:06:07  PAGE 3


001273H   001276H   000004H   BYTE   UNIT     CODE           ?PR?VREG_0_ENTER_DEFAULTMODE_FROM_RESET?INITDEVICE
001277H   00127AH   000004H   BYTE   UNIT     CODE           ?PR?HFOSC_0_ENTER_DEFAULTMODE_FROM_RESET?INITDEVICE
00127BH   00127EH   000004H   BYTE   UNIT     CODE           ?PR?CLOCK_0_ENTER_DEFAULTMODE_FROM_RESET?INITDEVICE
00127FH   001282H   000004H   BYTE   UNIT     CODE           ?PR?SMBUS_0_ENTER_MODE2_FROM_DEFAULTMODE?INITDEVICE
001283H   001286H   000004H   BYTE   UNIT     CODE           ?PR?UART_0_ENTER_DEFAULTMODE_FROM_RESET?INITDEVICE
001287H   001287H   000001H   BYTE   UNIT     CODE           ?PR?SILABS_STARTUP?F99X_SMBUS_MASTER

* * * * * * * * * * *  X D A T A   M E M O R Y  * * * * * * * * * * * * *
000000H   000000H   000001H   BYTE   OFFS..   XDATA          ?XD?F99X_SMBUS_MASTER?0

* * * * * * * * *   R E M O V E D     S E G M E N T S   * * * * * * * *
   *DEL*:           000008H   BYTE   UNIT     CODE           ?PR?_UART_SEND?F99X_SMBUS_MASTER
   *DEL*:           0000ECH   BYTE   UNIT     CODE           ?PR?_PRINT?F99X_SMBUS_MASTER
   *DEL*:           000018H   BYTE   UNIT     DATA           ?DT?_PRINT?F99X_SMBUS_MASTER
   *DEL*:           000019H   BYTE   UNIT     CODE           ?PR?TIMER16_3_ENTER_MODE2_FROM_DEFAULTMODE?INITDEVICE
   *DEL*:           0000A0H   BYTE   UNIT     CODE           ?PR?RTC_0_ENTER_DEFAULTMODE_FROM_RESET?INITDEVICE
   *DEL*:           000004H   BYTE   UNIT     CODE           ?PR?RSTSRC_0_ENTER_DEFAULTMODE_FROM_RESET?INITDEVICE
   *DEL*:           00000BH   BYTE   UNIT     CODE           ?PR?TIMER01_0_ENTER_DEFAULTMODE_FROM_RESET?INITDEVICE



OVERLAY MAP OF MODULE:   F99X-98X_SMBUS_MASTER.OMF.CRBUILD (F99X_SMBUS_MASTER)


FUNCTION/MODULE                                BIT_GROUP   DATA_GROUP 
--> CALLED FUNCTION/MODULE                    START  STOP  START  STOP
======================================================================
TIMER2_ISR/F99X_SMBUS_MASTER                  ----- -----  ----- -----
  +--> WAKEUP/F99X_SMBUS_MASTER

WAKEUP/F99X_SMBUS_MASTER                      ----- -----  ----- -----

*** NEW ROOT ********************************

SMBUS0_ISR/INTERRUPTS                         20H.4 20H.4  ----- -----

*** NEW ROOT ********************************

?C_C51STARTUP                                 ----- -----  ----- -----
  +--> SILABS_STARTUP/F99X_SMBUS_MASTER
  +--> MAIN/F99X_SMBUS_MASTER
  +--> ?C_INITSEG

SILABS_STARTUP/F99X_SMBUS_MASTER              ----- -----  ----- -----

MAIN/F99X_SMBUS_MASTER                        ----- -----  ----- -----
  +--> ENTER_DEFAULTMODE_FROM_RESET/INITDEVICE
  +--> ENTER_MODE2_FROM_DEFAULTMODE/INITDEVICE
  +--> UART_INIT/F99X_SMBUS_MASTER
  +--> ADC/F99X_SMBUS_MASTER
  +--> SLEEPMODE/F99X_SMBUS_MASTER
  +--> BME680INIT/F99X_SMBUS_MASTER
  +--> _SMB_READ_REG/F99X_SMBUS_MASTER
  +--> _GETTEMP/F99X_SMBUS_MASTER
  +--> _GETHUM/F99X_SMBUS_MASTER
  +--> _GETGAS/F99X_SMBUS_MASTER
  +--> READ_CO2/F99X_SMBUS_MASTER

ENTER_DEFAULTMODE_FROM_RESET/INITDEVICE       ----- -----  ----- -----
  +--> PCA_0_ENTER_DEFAULTMODE_FROM_RESET/INITDEVICE
  +--> VREG_0_ENTER_DEFAULTMODE_FROM_RESET/INITDEVICE
  +--> HFOSC_0_ENTER_DEFAULTMODE_FROM_RESET/INITDEVICE
LX51 LINKER/LOCATER V4.66.30.0                                                        05/12/2018  01:06:07  PAGE 4


  +--> CLOCK_0_ENTER_DEFAULTMODE_FROM_RESET/INITDEVICE
  +--> TIMER16_2_ENTER_DEFAULTMODE_FROM_RESET/INITDEVICE
  +--> UART_0_ENTER_DEFAULTMODE_FROM_RESET/INITDEVICE

PCA_0_ENTER_DEFAULTMODE_FROM_RESET/INITD+     ----- -----  ----- -----
... EVICE

VREG_0_ENTER_DEFAULTMODE_FROM_RESET/INIT+     ----- -----  ----- -----
... DEVICE

HFOSC_0_ENTER_DEFAULTMODE_FROM_RESET/INI+     ----- -----  ----- -----
... TDEVICE

CLOCK_0_ENTER_DEFAULTMODE_FROM_RESET/INI+     ----- -----  ----- -----
... TDEVICE

TIMER16_2_ENTER_DEFAULTMODE_FROM_RESET/I+     ----- -----  ----- -----
... NITDEVICE

UART_0_ENTER_DEFAULTMODE_FROM_RESET/INIT+     ----- -----  ----- -----
... DEVICE

ENTER_MODE2_FROM_DEFAULTMODE/INITDEVICE       ----- -----  ----- -----
  +--> PORTS_1_ENTER_MODE2_FROM_DEFAULTMODE/INITDEVICE
  +--> PBCFG_0_ENTER_MODE2_FROM_DEFAULTMODE/INITDEVICE
  +--> SMBUS_0_ENTER_MODE2_FROM_DEFAULTMODE/INITDEVICE
  +--> TIMER00_0_ENTER_MODE2_FROM_DEFAULTMODE/INITDEVICE
  +--> TIMER_SETUP_0_ENTER_MODE2_FROM_DEFAULTMODE/INITDEVICE
  +--> INTERRUPT_0_ENTER_MODE2_FROM_DEFAULTMODE/INITDEVICE

PORTS_1_ENTER_MODE2_FROM_DEFAULTMODE/INI+     ----- -----  ----- -----
... TDEVICE

PBCFG_0_ENTER_MODE2_FROM_DEFAULTMODE/INI+     ----- -----  ----- -----
... TDEVICE

SMBUS_0_ENTER_MODE2_FROM_DEFAULTMODE/INI+     ----- -----  ----- -----
... TDEVICE

TIMER00_0_ENTER_MODE2_FROM_DEFAULTMODE/I+     ----- -----  ----- -----
... NITDEVICE

TIMER_SETUP_0_ENTER_MODE2_FROM_DEFAULTMO+     ----- -----  ----- -----
... DE/INITDEVICE

INTERRUPT_0_ENTER_MODE2_FROM_DEFAULTMODE+     ----- -----  ----- -----
... /INITDEVICE

UART_INIT/F99X_SMBUS_MASTER                   ----- -----  ----- -----

ADC/F99X_SMBUS_MASTER                         ----- -----  ----- -----

SLEEPMODE/F99X_SMBUS_MASTER                   ----- -----  ----- -----

BME680INIT/F99X_SMBUS_MASTER                  ----- -----  0057H 005AH
  +--> _SMB_WRITE_REG/F99X_SMBUS_MASTER
  +--> GETHEAT/F99X_SMBUS_MASTER

_SMB_WRITE_REG/F99X_SMBUS_MASTER              ----- -----  ----- -----
  +--> SMB_WRITE/F99X_SMBUS_MASTER

SMB_WRITE/F99X_SMBUS_MASTER                   ----- -----  ----- -----
LX51 LINKER/LOCATER V4.66.30.0                                                        05/12/2018  01:06:07  PAGE 5



GETHEAT/F99X_SMBUS_MASTER                     ----- -----  005BH 007CH
  +--> _SMB_READ_REG/F99X_SMBUS_MASTER

_SMB_READ_REG/F99X_SMBUS_MASTER               ----- -----  007DH 007DH
  +--> SMB_WRITE/F99X_SMBUS_MASTER
  +--> SMB_READ/F99X_SMBUS_MASTER

SMB_READ/F99X_SMBUS_MASTER                    ----- -----  ----- -----

_GETTEMP/F99X_SMBUS_MASTER                    ----- -----  0057H 006DH

_GETHUM/F99X_SMBUS_MASTER                     ----- -----  0057H 0071H
  +--> _SMB_READ_REG/F99X_SMBUS_MASTER

_GETGAS/F99X_SMBUS_MASTER                     ----- -----  0057H 0072H
  +--> _SMB_READ_REG/F99X_SMBUS_MASTER

READ_CO2/F99X_SMBUS_MASTER                    ----- -----  0057H 0058H
  +--> SLEEPMODE/F99X_SMBUS_MASTER
  +--> SMB_WRITE/F99X_SMBUS_MASTER
  +--> SMB_READ/F99X_SMBUS_MASTER

?C_INITSEG                                    ----- -----  ----- -----



PUBLIC SYMBOLS OF MODULE:  F99X-98X_SMBUS_MASTER.OMF.CRBUILD (F99X_SMBUS_MASTER)


      VALUE       CLASS    TYPE      PUBLIC SYMBOL NAME
      =================================================
*DEL*:00000000H   DATA     BYTE      ?_print?BYTE
      0100031AH   CODE     ---       ?C?CASTF
      0100039BH   CODE     ---       ?C?CLDPTR
      00000000H   NUMBER   ---       ?C?CODESEG
      010003B4H   CODE     ---       ?C?CSTPTR
      010002E6H   CODE     ---       ?C?FCASTC
      010002E1H   CODE     ---       ?C?FCASTI
      010002DCH   CODE     ---       ?C?FCASTL
      01000045H   CODE     ---       ?C?FPADD
      0100023FH   CODE     ---       ?C?FPDIV
      01000351H   CODE     ---       ?C?FPGETOPN2
      01000136H   CODE     ---       ?C?FPMUL
      01000386H   CODE     ---       ?C?FPNANRESULT
      01000390H   CODE     ---       ?C?FPOVERFLOW
      01000368H   CODE     ---       ?C?FPRESULT
      0100037CH   CODE     ---       ?C?FPRESULT2
      01000041H   CODE     ---       ?C?FPSUB
      0100038DH   CODE     ---       ?C?FPUNDERFLOW
      010003C6H   CODE     ---       ?C?IMUL
      0100042DH   CODE     ---       ?C?LMUL
      0100054AH   CODE     ---       ?C?LNEG
      01000593H   CODE     ---       ?C?LSHL
      01000558H   CODE     ---       ?C?SLCMP
      01001147H   CODE     ---       ?C?SLDIV
      0100057FH   CODE     ---       ?C?SLSHR
      010003D8H   CODE     ---       ?C?UIDIV
      0100056EH   CODE     ---       ?C?ULCMP
      010004B8H   CODE     ---       ?C?ULDIV
      00000000H   NUMBER   ---       ?C?XDATASEG
      0100104EH   CODE     ---       ?C_START
LX51 LINKER/LOCATER V4.66.30.0                                                        05/12/2018  01:06:07  PAGE 6


      01000000H   CODE     NEAR LAB  ?C_STARTUP
      01000881H   CODE     ---       _getGas
      010005A6H   CODE     ---       _getHum
      01000DE3H   CODE     ---       _getTemp
*DEL*:00000000H   CODE     ---       _print
      01000003H   CODE     ---       _SMB_Read_Reg
      01001213H   CODE     ---       _SMB_Write_Reg
*DEL*:00000000H   CODE     ---       _UART_Send
      00000052H   DATA     LONG      a
*SFR* 000000E0H   DATA     BYTE      ACC
*SFR* 000000E0H   DATA     BIT       ACC_ACC0
*SFR* 000000E0H.1 DATA     BIT       ACC_ACC1
*SFR* 000000E0H.2 DATA     BIT       ACC_ACC2
*SFR* 000000E0H.3 DATA     BIT       ACC_ACC3
*SFR* 000000E0H.4 DATA     BIT       ACC_ACC4
*SFR* 000000E0H.5 DATA     BIT       ACC_ACC5
*SFR* 000000E0H.6 DATA     BIT       ACC_ACC6
*SFR* 000000E0H.7 DATA     BIT       ACC_ACC7
      010011DDH   CODE     ---       ADC
*SFR* 000000BDH   DATA     WORD      ADC0
*SFR* 000000BAH   DATA     BYTE      ADC0AC
*SFR* 00000097H   DATA     BYTE      ADC0CF
*SFR* 000000E8H   DATA     BYTE      ADC0CN
*SFR* 000000E8H.6 DATA     BIT       ADC0CN_ADBMEN
*SFR* 000000E8H.4 DATA     BIT       ADC0CN_ADBUSY
*SFR* 000000E8H   DATA     BIT       ADC0CN_ADCM0
*SFR* 000000E8H.1 DATA     BIT       ADC0CN_ADCM1
*SFR* 000000E8H.2 DATA     BIT       ADC0CN_ADCM2
*SFR* 000000E8H.7 DATA     BIT       ADC0CN_ADEN
*SFR* 000000E8H.5 DATA     BIT       ADC0CN_ADINT
*SFR* 000000E8H.3 DATA     BIT       ADC0CN_ADWINT
*SFR* 000000C3H   DATA     WORD      ADC0GT
*SFR* 000000C4H   DATA     BYTE      ADC0GTH
*SFR* 000000C3H   DATA     BYTE      ADC0GTL
*SFR* 000000BEH   DATA     BYTE      ADC0H
*SFR* 000000BDH   DATA     BYTE      ADC0L
*SFR* 000000C5H   DATA     WORD      ADC0LT
*SFR* 000000C6H   DATA     BYTE      ADC0LTH
*SFR* 000000C5H   DATA     BYTE      ADC0LTL
*SFR* 00000096H   DATA     BYTE      ADC0MX
*SFR* 000000BBH   DATA     BYTE      ADC0PWR
*SFR* 000000BCH   DATA     BYTE      ADC0TK
      00000008H   DATA     BYTE      ADDR_SEND
*SFR* 000000F0H   DATA     BYTE      B
*SFR* 000000F0H   DATA     BIT       B_B0
*SFR* 000000F0H.1 DATA     BIT       B_B1
*SFR* 000000F0H.2 DATA     BIT       B_B2
*SFR* 000000F0H.3 DATA     BIT       B_B3
*SFR* 000000F0H.4 DATA     BIT       B_B4
*SFR* 000000F0H.5 DATA     BIT       B_B5
*SFR* 000000F0H.6 DATA     BIT       B_B6
*SFR* 000000F0H.7 DATA     BIT       B_B7
      010010FCH   CODE     ---       BME680Init
      00000045H   DATA     LONG      calc_hum
      00000049H   DATA     DWORD     cc
*SFR* 0000008EH   DATA     BYTE      CKCON
*SFR* 000000A9H   DATA     BYTE      CLKSEL
      0100127BH   CODE     ---       CLOCK_0_enter_DefaultMode_from_RESET
      00000020H.2 BIT      BIT       CO2_MODE
*SFR* 00000090H.5 DATA     BIT       CO2_ON
      0000003CH   DATA     WORD      count
      0000004FH   DATA     WORD      count_max
LX51 LINKER/LOCATER V4.66.30.0                                                        05/12/2018  01:06:07  PAGE 7


*SFR* 0000009BH   DATA     BYTE      CPT0CN
*SFR* 0000009DH   DATA     BYTE      CPT0MD
*SFR* 0000009FH   DATA     BYTE      CPT0MX
*SFR* 0000009EH   DATA     BYTE      CRC0AUTO
*SFR* 00000084H   DATA     BYTE      CRC0CN
*SFR* 0000009AH   DATA     BYTE      CRC0CNT
*SFR* 00000086H   DATA     BYTE      CRC0DAT
*SFR* 0000009CH   DATA     BYTE      CRC0FLIP
*SFR* 00000085H   DATA     BYTE      CRC0IN
*SFR* 000000AAH   DATA     BYTE      CS0CF
*SFR* 000000B0H   DATA     BYTE      CS0CN
*SFR* 000000B0H.4 DATA     BIT       CS0CN_CSBUSY
*SFR* 000000B0H.3 DATA     BIT       CS0CN_CSCMPEN
*SFR* 000000B0H   DATA     BIT       CS0CN_CSCMPF
*SFR* 000000B0H.7 DATA     BIT       CS0CN_CSEN
*SFR* 000000B0H.6 DATA     BIT       CS0CN_CSEOS
*SFR* 000000B0H.5 DATA     BIT       CS0CN_CSINT
*SFR* 000000B0H.1 DATA     BIT       CS0CN_CSPME
*SFR* 000000EEH   DATA     BYTE      CS0DH
*SFR* 000000EDH   DATA     BYTE      CS0DL
*SFR* 000000AFH   DATA     BYTE      CS0MD1
*SFR* 000000F3H   DATA     BYTE      CS0MD2
*SFR* 000000F3H   DATA     BYTE      CS0MD3
*SFR* 000000ABH   DATA     BYTE      CS0MX
*SFR* 000000DEH   DATA     BYTE      CS0PM
*SFR* 000000D2H   DATA     BYTE      CS0SCAN0
*SFR* 000000D3H   DATA     BYTE      CS0SCAN1
*SFR* 000000DEH   DATA     BYTE      CS0SE
*SFR* 000000DDH   DATA     BYTE      CS0SS
*SFR* 000000FEH   DATA     BYTE      CS0THH
*SFR* 000000FDH   DATA     BYTE      CS0THL
      00000042H   DATA     WORD      DATA_CO2_IN
      00000026H   DATA     ---       DATA_CO2_OUT
*SFR* 000000E3H   DATA     BYTE      DERIVID
*SFR* 00000082H   DATA     WORD      DP
*SFR* 00000083H   DATA     BYTE      DPH
*SFR* 00000082H   DATA     BYTE      DPL
*SFR* 000000E6H   DATA     BYTE      EIE1
*SFR* 000000E7H   DATA     BYTE      EIE2
*SFR* 000000F6H   DATA     BYTE      EIP1
*SFR* 000000F7H   DATA     BYTE      EIP2
      010011EFH   CODE     ---       enter_DefaultMode_from_RESET
      01001201H   CODE     ---       enter_Mode2_from_DefaultMode
*SFR* 000000B7H   DATA     BYTE      FLKEY
*SFR* 000000B6H   DATA     BYTE      FLSCL
*SFR* 000000E5H   DATA     BYTE      FLWR
      0000003EH   DATA     LONG      gas_range
      01000AECH   CODE     ---       getHeat
      01001277H   CODE     ---       HFOSC_0_enter_DefaultMode_from_RESET
*SFR* 000000A8H   DATA     BYTE      IE
*SFR* 000000A8H.7 DATA     BIT       IE_EA
*SFR* 000000A8H.4 DATA     BIT       IE_ES0
*SFR* 000000A8H.6 DATA     BIT       IE_ESPI0
*SFR* 000000A8H.1 DATA     BIT       IE_ET0
*SFR* 000000A8H.3 DATA     BIT       IE_ET1
*SFR* 000000A8H.5 DATA     BIT       IE_ET2
*SFR* 000000A8H   DATA     BIT       IE_EX0
*SFR* 000000A8H.2 DATA     BIT       IE_EX1
      01001264H   CODE     ---       INTERRUPT_0_enter_Mode2_from_DefaultMode
*SFR* 000000B8H   DATA     BYTE      IP
*SFR* 000000B8H.4 DATA     BIT       IP_PS0
*SFR* 000000B8H.6 DATA     BIT       IP_PSPI0
LX51 LINKER/LOCATER V4.66.30.0                                                        05/12/2018  01:06:07  PAGE 8


*SFR* 000000B8H.1 DATA     BIT       IP_PT0
*SFR* 000000B8H.3 DATA     BIT       IP_PT1
*SFR* 000000B8H.5 DATA     BIT       IP_PT2
*SFR* 000000B8H   DATA     BIT       IP_PX0
*SFR* 000000B8H.2 DATA     BIT       IP_PX1
*SFR* 000000B9H   DATA     BYTE      IREF0CF
*SFR* 000000D6H   DATA     BYTE      IREF0CN
*SFR* 000000E4H   DATA     BYTE      IT01CF
      00000021H   DATA     BYTE      length
      01000C9FH   CODE     ---       main
*SFR* 000000B3H   DATA     BYTE      OSCICL
*SFR* 000000B2H   DATA     BYTE      OSCICN
*SFR* 000000B1H   DATA     BYTE      OSCXCN
*SFR* 00000080H   DATA     BYTE      P0
*SFR* 00000080H   DATA     BIT       P0_B0
*SFR* 00000080H.1 DATA     BIT       P0_B1
*SFR* 00000080H.2 DATA     BIT       P0_B2
*SFR* 00000080H.3 DATA     BIT       P0_B3
*SFR* 00000080H.4 DATA     BIT       P0_B4
*SFR* 00000080H.5 DATA     BIT       P0_B5
*SFR* 00000080H.6 DATA     BIT       P0_B6
*SFR* 00000080H.7 DATA     BIT       P0_B7
*SFR* 00000099H   DATA     BYTE      P0DRV
*SFR* 000000C7H   DATA     BYTE      P0MASK
*SFR* 000000D7H   DATA     BYTE      P0MAT
*SFR* 000000F1H   DATA     BYTE      P0MDIN
*SFR* 000000A4H   DATA     BYTE      P0MDOUT
*SFR* 000000D4H   DATA     BYTE      P0SKIP
*SFR* 00000090H   DATA     BYTE      P1
*SFR* 00000090H   DATA     BIT       P1_B0
*SFR* 00000090H.1 DATA     BIT       P1_B1
*SFR* 00000090H.2 DATA     BIT       P1_B2
*SFR* 00000090H.3 DATA     BIT       P1_B3
*SFR* 00000090H.4 DATA     BIT       P1_B4
*SFR* 00000090H.5 DATA     BIT       P1_B5
*SFR* 00000090H.6 DATA     BIT       P1_B6
*SFR* 00000090H.7 DATA     BIT       P1_B7
*SFR* 0000009BH   DATA     BYTE      P1DRV
*SFR* 000000BFH   DATA     BYTE      P1MASK
*SFR* 000000CFH   DATA     BYTE      P1MAT
*SFR* 000000F2H   DATA     BYTE      P1MDIN
*SFR* 000000A5H   DATA     BYTE      P1MDOUT
*SFR* 000000D5H   DATA     BYTE      P1SKIP
*SFR* 000000A0H   DATA     BYTE      P2
*SFR* 000000A0H.7 DATA     BIT       P2_B7
*SFR* 0000009DH   DATA     BYTE      P2DRV
*SFR* 000000A6H   DATA     BYTE      P2MDOUT
      0100125DH   CODE     ---       PBCFG_0_enter_Mode2_from_DefaultMode
*SFR* 000000F9H   DATA     WORD      PCA0
*SFR* 000000D8H   DATA     BYTE      PCA0CN
*SFR* 000000D8H   DATA     BIT       PCA0CN_CCF0
*SFR* 000000D8H.1 DATA     BIT       PCA0CN_CCF1
*SFR* 000000D8H.2 DATA     BIT       PCA0CN_CCF2
*SFR* 000000D8H.7 DATA     BIT       PCA0CN_CF
*SFR* 000000D8H.6 DATA     BIT       PCA0CN_CR
*SFR* 000000FBH   DATA     WORD      PCA0CP0
*SFR* 000000E9H   DATA     WORD      PCA0CP1
*SFR* 000000EBH   DATA     WORD      PCA0CP2
*SFR* 000000FCH   DATA     BYTE      PCA0CPH0
*SFR* 000000EAH   DATA     BYTE      PCA0CPH1
*SFR* 000000ECH   DATA     BYTE      PCA0CPH2
*SFR* 000000FBH   DATA     BYTE      PCA0CPL0
LX51 LINKER/LOCATER V4.66.30.0                                                        05/12/2018  01:06:07  PAGE 9


*SFR* 000000E9H   DATA     BYTE      PCA0CPL1
*SFR* 000000EBH   DATA     BYTE      PCA0CPL2
*SFR* 000000DAH   DATA     BYTE      PCA0CPM0
*SFR* 000000DBH   DATA     BYTE      PCA0CPM1
*SFR* 000000DCH   DATA     BYTE      PCA0CPM2
*SFR* 000000FAH   DATA     BYTE      PCA0H
*SFR* 000000F9H   DATA     BYTE      PCA0L
*SFR* 000000D9H   DATA     BYTE      PCA0MD
*SFR* 000000DFH   DATA     BYTE      PCA0PWM
      01000024H   CODE     ---       PCA_0_enter_DefaultMode_from_RESET
*SFR* 00000087H   DATA     BYTE      PCON
*SFR* 000000B5H   DATA     BYTE      PMU0CF
*SFR* 000000CEH   DATA     BYTE      PMU0FL
*SFR* 000000B5H   DATA     BYTE      PMU0MD
      01001256H   CODE     ---       PORTS_1_enter_Mode2_from_DefaultMode
*SFR* 000000A0H   DATA     BYTE      PPAGE_SFR
*SFR* 0000008FH   DATA     BYTE      PSCTL
*SFR* 000000D0H   DATA     BYTE      PSW
*SFR* 000000D0H.6 DATA     BIT       PSW_AC
*SFR* 000000D0H.7 DATA     BIT       PSW_CY
*SFR* 000000D0H.5 DATA     BIT       PSW_F0
*SFR* 000000D0H.1 DATA     BIT       PSW_F1
*SFR* 000000D0H.2 DATA     BIT       PSW_OV
*SFR* 000000D0H   DATA     BIT       PSW_PARITY
*SFR* 000000D0H.3 DATA     BIT       PSW_RS0
*SFR* 000000D0H.4 DATA     BIT       PSW_RS1
*SFR* 00000090H.4 DATA     BIT       R15_ENABLE
      01001093H   CODE     ---       Read_CO2
      00000020H.1 BIT      BIT       ready
*SFR* 000000D1H   DATA     BYTE      REF0CN
*SFR* 000000C9H   DATA     BYTE      REG0CN
      02000000H   XDATA    BYTE      reserved
*SFR* 000000E2H   DATA     BYTE      REVID
*SFR* 000000EFH   DATA     BYTE      RSTSRC
*DEL*:00000000H   CODE     ---       RSTSRC_0_enter_DefaultMode_from_RESET
*SFR* 000000ACH   DATA     BYTE      RTC0ADR
*SFR* 000000ADH   DATA     BYTE      RTC0DAT
*SFR* 000000AEH   DATA     BYTE      RTC0KEY
*DEL*:00000000H   CODE     ---       RTC_0_enter_DefaultMode_from_RESET
      00000037H   DATA     BYTE      RW_Reg
*SFR* 00000099H   DATA     BYTE      SBUF0
*SFR* 00000080H.1 DATA     BIT       SCL
*SFR* 00000098H   DATA     BYTE      SCON0
*SFR* 00000098H.5 DATA     BIT       SCON0_MCE
*SFR* 00000098H.2 DATA     BIT       SCON0_RB8
*SFR* 00000098H.4 DATA     BIT       SCON0_REN
*SFR* 00000098H   DATA     BIT       SCON0_RI
*SFR* 00000098H.7 DATA     BIT       SCON0_SMODE
*SFR* 00000098H.3 DATA     BIT       SCON0_TB8
*SFR* 00000098H.1 DATA     BIT       SCON0_TI
*SFR* 00000080H   DATA     BIT       SDA
*SFR* 000000A7H   DATA     BYTE      SFRPAGE
      01001287H   CODE     ---       SiLabs_Startup
      0100126BH   CODE     ---       sleepMode
*SFR* 000000F5H   DATA     BYTE      SMB0ADM
*SFR* 000000F4H   DATA     BYTE      SMB0ADR
*SFR* 000000C1H   DATA     BYTE      SMB0CF
*SFR* 000000C0H   DATA     BYTE      SMB0CN
*SFR* 000000C0H.1 DATA     BIT       SMB0CN_ACK
*SFR* 000000C0H.3 DATA     BIT       SMB0CN_ACKRQ
*SFR* 000000C0H.2 DATA     BIT       SMB0CN_ARBLOST
*SFR* 000000C0H.7 DATA     BIT       SMB0CN_MASTER
LX51 LINKER/LOCATER V4.66.30.0                                                        05/12/2018  01:06:07  PAGE 10


*SFR* 000000C0H   DATA     BIT       SMB0CN_SI
*SFR* 000000C0H.5 DATA     BIT       SMB0CN_STA
*SFR* 000000C0H.4 DATA     BIT       SMB0CN_STO
*SFR* 000000C0H.6 DATA     BIT       SMB0CN_TXMODE
*SFR* 000000C2H   DATA     BYTE      SMB0DAT
      00000020H.0 BIT      BIT       SMB_BUSY
      00000051H   DATA     BYTE      SMB_DATA_IN
      00000044H   DATA     BYTE      SMB_DATA_OUT
      01001231H   CODE     ---       SMB_Read
      00000056H   DATA     BYTE      SMB_REG_OUT
      00000020H.3 BIT      BIT       SMB_RW
      01001224H   CODE     ---       SMB_Write
      01000EFFH   CODE     ---       SMBUS0_ISR
      0100127FH   CODE     ---       SMBUS_0_enter_Mode2_from_DefaultMode
*SFR* 00000081H   DATA     BYTE      SP
*SFR* 000000A1H   DATA     BYTE      SPI0CFG
*SFR* 000000A2H   DATA     BYTE      SPI0CKR
*SFR* 000000F8H   DATA     BYTE      SPI0CN
*SFR* 000000F8H.5 DATA     BIT       SPI0CN_MODF
*SFR* 000000F8H.2 DATA     BIT       SPI0CN_NSSMD0
*SFR* 000000F8H.3 DATA     BIT       SPI0CN_NSSMD1
*SFR* 000000F8H.4 DATA     BIT       SPI0CN_RXOVRN
*SFR* 000000F8H   DATA     BIT       SPI0CN_SPIEN
*SFR* 000000F8H.7 DATA     BIT       SPI0CN_SPIF
*SFR* 000000F8H.1 DATA     BIT       SPI0CN_TXBMT
*SFR* 000000F8H.6 DATA     BIT       SPI0CN_WCOL
*SFR* 000000A3H   DATA     BYTE      SPI0DAT
      0000004EH   DATA     BYTE      START_SMB
      0000004DH   DATA     BYTE      TARGET
*SFR* 00000088H   DATA     BYTE      TCON
*SFR* 00000088H.1 DATA     BIT       TCON_IE0
*SFR* 00000088H.3 DATA     BIT       TCON_IE1
*SFR* 00000088H   DATA     BIT       TCON_IT0
*SFR* 00000088H.2 DATA     BIT       TCON_IT1
*SFR* 00000088H.5 DATA     BIT       TCON_TF0
*SFR* 00000088H.7 DATA     BIT       TCON_TF1
*SFR* 00000088H.4 DATA     BIT       TCON_TR0
*SFR* 00000088H.6 DATA     BIT       TCON_TR1
      00000022H   DATA     LONG      temp_scaled
*SFR* 0000008CH   DATA     BYTE      TH0
*SFR* 0000008DH   DATA     BYTE      TH1
      0100124BH   CODE     ---       TIMER00_0_enter_Mode2_from_DefaultMode
*DEL*:00000000H   CODE     ---       TIMER01_0_enter_DefaultMode_from_RESET
      010011ACH   CODE     ---       TIMER16_2_enter_DefaultMode_from_RESET
*DEL*:00000000H   CODE     ---       TIMER16_3_enter_Mode2_from_DefaultMode
      0100118BH   CODE     ---       TIMER2_ISR
      0100123EH   CODE     ---       TIMER_SETUP_0_enter_Mode2_from_DefaultMode
*SFR* 0000008AH   DATA     BYTE      TL0
*SFR* 0000008BH   DATA     BYTE      TL1
*SFR* 00000089H   DATA     BYTE      TMOD
*SFR* 000000CCH   DATA     WORD      TMR2
*SFR* 000000C8H   DATA     BYTE      TMR2CN
*SFR* 000000C8H.3 DATA     BIT       TMR2CN_T2SPLIT
*SFR* 000000C8H   DATA     BIT       TMR2CN_T2XCLK0
*SFR* 000000C8H.1 DATA     BIT       TMR2CN_T2XCLK1
*SFR* 000000C8H.4 DATA     BIT       TMR2CN_TF2CEN
*SFR* 000000C8H.7 DATA     BIT       TMR2CN_TF2H
*SFR* 000000C8H.6 DATA     BIT       TMR2CN_TF2L
*SFR* 000000C8H.5 DATA     BIT       TMR2CN_TF2LEN
*SFR* 000000C8H.2 DATA     BIT       TMR2CN_TR2
*SFR* 000000CDH   DATA     BYTE      TMR2H
*SFR* 000000CCH   DATA     BYTE      TMR2L
LX51 LINKER/LOCATER V4.66.30.0                                                        05/12/2018  01:06:07  PAGE 11


*SFR* 000000CAH   DATA     WORD      TMR2RL
*SFR* 000000CBH   DATA     BYTE      TMR2RLH
*SFR* 000000CAH   DATA     BYTE      TMR2RLL
*SFR* 00000094H   DATA     WORD      TMR3
*SFR* 00000091H   DATA     BYTE      TMR3CN
*SFR* 00000095H   DATA     BYTE      TMR3H
*SFR* 00000094H   DATA     BYTE      TMR3L
*SFR* 00000092H   DATA     WORD      TMR3RL
*SFR* 00000093H   DATA     BYTE      TMR3RLH
*SFR* 00000092H   DATA     BYTE      TMR3RLL
*SFR* 0000008EH   DATA     BYTE      TOFFH
*SFR* 0000008DH   DATA     BYTE      TOFFL
      01001283H   CODE     ---       UART_0_enter_DefaultMode_from_RESET
      0100002EH   CODE     ---       UART_Init
      0000002BH   DATA     LONG      v1
      0000002FH   DATA     LONG      v2
      00000033H   DATA     LONG      v3
      00000038H   DATA     LONG      v4
*SFR* 000000FFH   DATA     BYTE      VDM0CN
      01001273H   CODE     ---       VREG_0_enter_DefaultMode_from_RESET
      0100126FH   CODE     ---       wakeUp
*SFR* 000000E1H   DATA     BYTE      XBR0
*SFR* 000000E2H   DATA     BYTE      XBR1
*SFR* 000000E3H   DATA     BYTE      XBR2
*SFR* 00000090H.3 DATA     BIT       YELLOW_LED



SYMBOL TABLE OF MODULE:  F99X-98X_SMBUS_MASTER.OMF.CRBUILD (F99X_SMBUS_MASTER)

      VALUE       REP       CLASS    TYPE      SYMBOL NAME
      ====================================================
      ---         MODULE    ---      ---       F99X_SMBUS_MASTER
      00000056H   PUBLIC    DATA     BYTE      SMB_REG_OUT
      00000020H.3 PUBLIC    BIT      BIT       SMB_RW
      02000000H   PUBLIC    XDATA    BYTE      reserved
      00000052H   PUBLIC    DATA     LONG      a
      00000051H   PUBLIC    DATA     BYTE      SMB_DATA_IN
      0000004FH   PUBLIC    DATA     WORD      count_max
      0000004EH   PUBLIC    DATA     BYTE      START_SMB
      00000020H.2 PUBLIC    BIT      BIT       CO2_MODE
      0000004DH   PUBLIC    DATA     BYTE      TARGET
      00000049H   PUBLIC    DATA     DWORD     cc
      00000045H   PUBLIC    DATA     LONG      calc_hum
      00000044H   PUBLIC    DATA     BYTE      SMB_DATA_OUT
      00000042H   PUBLIC    DATA     WORD      DATA_CO2_IN
      0000003EH   PUBLIC    DATA     LONG      gas_range
      0000003CH   PUBLIC    DATA     WORD      count
      00000038H   PUBLIC    DATA     LONG      v4
      00000037H   PUBLIC    DATA     BYTE      RW_Reg
      00000033H   PUBLIC    DATA     LONG      v3
      0000002FH   PUBLIC    DATA     LONG      v2
      0000002BH   PUBLIC    DATA     LONG      v1
      00000026H   PUBLIC    DATA     ---       DATA_CO2_OUT
      00000020H.1 PUBLIC    BIT      BIT       ready
      00000022H   PUBLIC    DATA     LONG      temp_scaled
      00000020H.0 PUBLIC    BIT      BIT       SMB_BUSY
      00000021H   PUBLIC    DATA     BYTE      length
      0100118BH   PUBLIC    CODE     ---       TIMER2_ISR
      01001231H   PUBLIC    CODE     ---       SMB_Read
      01001224H   PUBLIC    CODE     ---       SMB_Write
      01000C9FH   PUBLIC    CODE     ---       main
LX51 LINKER/LOCATER V4.66.30.0                                                        05/12/2018  01:06:07  PAGE 12


      010010FCH   PUBLIC    CODE     ---       BME680Init
      010011DDH   PUBLIC    CODE     ---       ADC
      0100126FH   PUBLIC    CODE     ---       wakeUp
      0100126BH   PUBLIC    CODE     ---       sleepMode
      01000AECH   PUBLIC    CODE     ---       getHeat
      01000881H   PUBLIC    CODE     ---       _getGas
      010005A6H   PUBLIC    CODE     ---       _getHum
      01000DE3H   PUBLIC    CODE     ---       _getTemp
      01001213H   PUBLIC    CODE     ---       _SMB_Write_Reg
      01000003H   PUBLIC    CODE     ---       _SMB_Read_Reg
      01001093H   PUBLIC    CODE     ---       Read_CO2
      0100002EH   PUBLIC    CODE     ---       UART_Init
      01001287H   PUBLIC    CODE     ---       SiLabs_Startup
      000000A2H   SFRSYM    DATA     BYTE      SPI0CKR
      00000080H   SFRSYM    DATA     BYTE      P0
      000000D0H.2 SFRSYM    DATA     BIT       PSW_OV
      000000D8H.7 SFRSYM    DATA     BIT       PCA0CN_CF
      00000090H   SFRSYM    DATA     BYTE      P1
      000000F8H.4 SFRSYM    DATA     BIT       SPI0CN_RXOVRN
      000000A0H   SFRSYM    DATA     BYTE      P2
      00000097H   SFRSYM    DATA     BYTE      ADC0CF
      000000C8H   SFRSYM    DATA     BIT       TMR2CN_T2XCLK0
      000000C8H.1 SFRSYM    DATA     BIT       TMR2CN_T2XCLK1
      000000E8H.7 SFRSYM    DATA     BIT       ADC0CN_ADEN
      000000F9H   SFRSYM    DATA     WORD      PCA0
      000000AEH   SFRSYM    DATA     BYTE      RTC0KEY
      000000E6H   SFRSYM    DATA     BYTE      EIE1
      000000E7H   SFRSYM    DATA     BYTE      EIE2
      0000008FH   SFRSYM    DATA     BYTE      PSCTL
      000000E4H   SFRSYM    DATA     BYTE      IT01CF
      000000E3H   SFRSYM    DATA     BYTE      DERIVID
      000000AFH   SFRSYM    DATA     BYTE      CS0MD1
      000000A7H   SFRSYM    DATA     BYTE      SFRPAGE
      000000F3H   SFRSYM    DATA     BYTE      CS0MD2
      000000E8H   SFRSYM    DATA     BYTE      ADC0CN
      000000A4H   SFRSYM    DATA     BYTE      P0MDOUT
      000000F3H   SFRSYM    DATA     BYTE      CS0MD3
      000000D8H.6 SFRSYM    DATA     BIT       PCA0CN_CR
      000000A5H   SFRSYM    DATA     BYTE      P1MDOUT
      000000CBH   SFRSYM    DATA     BYTE      TMR2RLH
      000000A6H   SFRSYM    DATA     BYTE      P2MDOUT
      000000A8H   SFRSYM    DATA     BYTE      IE
      00000093H   SFRSYM    DATA     BYTE      TMR3RLH
      000000F6H   SFRSYM    DATA     BYTE      EIP1
      000000F8H   SFRSYM    DATA     BIT       SPI0CN_SPIEN
      000000F7H   SFRSYM    DATA     BYTE      EIP2
      00000098H.2 SFRSYM    DATA     BIT       SCON0_RB8
      000000CAH   SFRSYM    DATA     BYTE      TMR2RLL
      000000FCH   SFRSYM    DATA     BYTE      PCA0CPH0
      00000092H   SFRSYM    DATA     BYTE      TMR3RLL
      000000EAH   SFRSYM    DATA     BYTE      PCA0CPH1
      00000098H.3 SFRSYM    DATA     BIT       SCON0_TB8
      000000F0H   SFRSYM    DATA     BIT       B_B0
      00000082H   SFRSYM    DATA     WORD      DP
      000000ECH   SFRSYM    DATA     BYTE      PCA0CPH2
      00000090H.3 SFRSYM    DATA     BIT       YELLOW_LED
      000000B0H.4 SFRSYM    DATA     BIT       CS0CN_CSBUSY
      000000F0H.1 SFRSYM    DATA     BIT       B_B1
      000000E8H.6 SFRSYM    DATA     BIT       ADC0CN_ADBMEN
      000000C3H   SFRSYM    DATA     WORD      ADC0GT
      000000F0H.2 SFRSYM    DATA     BIT       B_B2
      000000FBH   SFRSYM    DATA     BYTE      PCA0CPL0
LX51 LINKER/LOCATER V4.66.30.0                                                        05/12/2018  01:06:07  PAGE 13


      000000F0H.3 SFRSYM    DATA     BIT       B_B3
      000000D9H   SFRSYM    DATA     BYTE      PCA0MD
      000000DAH   SFRSYM    DATA     BYTE      PCA0CPM0
      000000E9H   SFRSYM    DATA     BYTE      PCA0CPL1
      000000D8H   SFRSYM    DATA     BYTE      PCA0CN
      000000F0H.4 SFRSYM    DATA     BIT       B_B4
      000000DBH   SFRSYM    DATA     BYTE      PCA0CPM1
      000000EBH   SFRSYM    DATA     BYTE      PCA0CPL2
      000000F0H.5 SFRSYM    DATA     BIT       B_B5
      000000DCH   SFRSYM    DATA     BYTE      PCA0CPM2
      000000B8H   SFRSYM    DATA     BYTE      IP
      000000BCH   SFRSYM    DATA     BYTE      ADC0TK
      000000F0H.6 SFRSYM    DATA     BIT       B_B6
      000000C5H   SFRSYM    DATA     WORD      ADC0LT
      00000098H.5 SFRSYM    DATA     BIT       SCON0_MCE
      000000F0H.7 SFRSYM    DATA     BIT       B_B7
      00000084H   SFRSYM    DATA     BYTE      CRC0CN
      000000E1H   SFRSYM    DATA     BYTE      XBR0
      000000C1H   SFRSYM    DATA     BYTE      SMB0CF
      000000E2H   SFRSYM    DATA     BYTE      XBR1
      000000D2H   SFRSYM    DATA     BYTE      CS0SCAN0
      000000E3H   SFRSYM    DATA     BYTE      XBR2
      000000D3H   SFRSYM    DATA     BYTE      CS0SCAN1
      00000096H   SFRSYM    DATA     BYTE      ADC0MX
      000000C0H.2 SFRSYM    DATA     BIT       SMB0CN_ARBLOST
      000000E0H   SFRSYM    DATA     BIT       ACC_ACC0
      000000D1H   SFRSYM    DATA     BYTE      REF0CN
      000000F8H.1 SFRSYM    DATA     BIT       SPI0CN_TXBMT
      000000E0H.1 SFRSYM    DATA     BIT       ACC_ACC1
      000000C9H   SFRSYM    DATA     BYTE      REG0CN
      00000085H   SFRSYM    DATA     BYTE      CRC0IN
      000000C0H   SFRSYM    DATA     BIT       SMB0CN_SI
      000000E0H.2 SFRSYM    DATA     BIT       ACC_ACC2
      000000E0H.3 SFRSYM    DATA     BIT       ACC_ACC3
      00000081H   SFRSYM    DATA     BYTE      SP
      000000E0H.4 SFRSYM    DATA     BIT       ACC_ACC4
      000000E0H.5 SFRSYM    DATA     BIT       ACC_ACC5
      000000C0H   SFRSYM    DATA     BYTE      SMB0CN
      000000E0H.6 SFRSYM    DATA     BIT       ACC_ACC6
      000000CCH   SFRSYM    DATA     WORD      TMR2
      000000E0H.7 SFRSYM    DATA     BIT       ACC_ACC7
      00000094H   SFRSYM    DATA     WORD      TMR3
      000000FFH   SFRSYM    DATA     BYTE      VDM0CN
      000000F1H   SFRSYM    DATA     BYTE      P0MDIN
      0000009DH   SFRSYM    DATA     BYTE      CPT0MD
      0000009BH   SFRSYM    DATA     BYTE      CPT0CN
      00000098H.4 SFRSYM    DATA     BIT       SCON0_REN
      000000F2H   SFRSYM    DATA     BYTE      P1MDIN
      000000FEH   SFRSYM    DATA     BYTE      CS0THH
      000000B5H   SFRSYM    DATA     BYTE      PMU0CF
      000000C8H.7 SFRSYM    DATA     BIT       TMR2CN_TF2H
      000000C8H.3 SFRSYM    DATA     BIT       TMR2CN_T2SPLIT
      000000C7H   SFRSYM    DATA     BYTE      P0MASK
      000000F8H   SFRSYM    DATA     BYTE      SPI0CN
      000000BFH   SFRSYM    DATA     BYTE      P1MASK
      000000FDH   SFRSYM    DATA     BYTE      CS0THL
      000000D0H.3 SFRSYM    DATA     BIT       PSW_RS0
      00000087H   SFRSYM    DATA     BYTE      PCON
      000000C8H.6 SFRSYM    DATA     BIT       TMR2CN_TF2L
      000000D0H.4 SFRSYM    DATA     BIT       PSW_RS1
      000000E8H   SFRSYM    DATA     BIT       ADC0CN_ADCM0
      000000B0H.1 SFRSYM    DATA     BIT       CS0CN_CSPME
LX51 LINKER/LOCATER V4.66.30.0                                                        05/12/2018  01:06:07  PAGE 14


      000000E8H.1 SFRSYM    DATA     BIT       ADC0CN_ADCM1
      000000E8H.2 SFRSYM    DATA     BIT       ADC0CN_ADCM2
      000000E8H.3 SFRSYM    DATA     BIT       ADC0CN_ADWINT
      00000089H   SFRSYM    DATA     BYTE      TMOD
      00000088H   SFRSYM    DATA     BYTE      TCON
      000000B5H   SFRSYM    DATA     BYTE      PMU0MD
      000000E8H.4 SFRSYM    DATA     BIT       ADC0CN_ADBUSY
      000000CEH   SFRSYM    DATA     BYTE      PMU0FL
      0000009CH   SFRSYM    DATA     BYTE      CRC0FLIP
      000000F8H.5 SFRSYM    DATA     BIT       SPI0CN_MODF
      000000D0H   SFRSYM    DATA     BIT       PSW_PARITY
      000000A8H.4 SFRSYM    DATA     BIT       IE_ES0
      000000A8H.1 SFRSYM    DATA     BIT       IE_ET0
      000000B0H.6 SFRSYM    DATA     BIT       CS0CN_CSEOS
      000000C8H   SFRSYM    DATA     BYTE      TMR2CN
      000000A8H.3 SFRSYM    DATA     BIT       IE_ET1
      00000091H   SFRSYM    DATA     BYTE      TMR3CN
      000000D4H   SFRSYM    DATA     BYTE      P0SKIP
      000000A8H.5 SFRSYM    DATA     BIT       IE_ET2
      000000D5H   SFRSYM    DATA     BYTE      P1SKIP
      000000A8H   SFRSYM    DATA     BIT       IE_EX0
      000000B0H.5 SFRSYM    DATA     BIT       CS0CN_CSINT
      000000E5H   SFRSYM    DATA     BYTE      FLWR
      000000C8H.4 SFRSYM    DATA     BIT       TMR2CN_TF2CEN
      000000A8H.2 SFRSYM    DATA     BIT       IE_EX1
      0000009FH   SFRSYM    DATA     BYTE      CPT0MX
      00000098H.7 SFRSYM    DATA     BIT       SCON0_SMODE
      000000B3H   SFRSYM    DATA     BYTE      OSCICL
      000000A9H   SFRSYM    DATA     BYTE      CLKSEL
      000000B2H   SFRSYM    DATA     BYTE      OSCICN
      000000F0H   SFRSYM    DATA     BYTE      B
      000000BEH   SFRSYM    DATA     BYTE      ADC0H
      00000090H.4 SFRSYM    DATA     BIT       R15_ENABLE
      00000090H.5 SFRSYM    DATA     BIT       CO2_ON
      000000F8H.7 SFRSYM    DATA     BIT       SPI0CN_SPIF
      0000009EH   SFRSYM    DATA     BYTE      CRC0AUTO
      000000B0H.3 SFRSYM    DATA     BIT       CS0CN_CSCMPEN
      000000CAH   SFRSYM    DATA     WORD      TMR2RL
      000000BDH   SFRSYM    DATA     BYTE      ADC0L
      000000C8H.5 SFRSYM    DATA     BIT       TMR2CN_TF2LEN
      000000F8H.6 SFRSYM    DATA     BIT       SPI0CN_WCOL
      00000092H   SFRSYM    DATA     WORD      TMR3RL
      000000F8H.2 SFRSYM    DATA     BIT       SPI0CN_NSSMD0
      000000E0H   SFRSYM    DATA     BYTE      ACC
      000000F8H.3 SFRSYM    DATA     BIT       SPI0CN_NSSMD1
      000000FBH   SFRSYM    DATA     WORD      PCA0CP0
      000000E9H   SFRSYM    DATA     WORD      PCA0CP1
      000000EBH   SFRSYM    DATA     WORD      PCA0CP2
      0000008CH   SFRSYM    DATA     BYTE      TH0
      000000B8H.4 SFRSYM    DATA     BIT       IP_PS0
      0000008DH   SFRSYM    DATA     BYTE      TH1
      000000FAH   SFRSYM    DATA     BYTE      PCA0H
      000000B8H.1 SFRSYM    DATA     BIT       IP_PT0
      000000B8H.3 SFRSYM    DATA     BIT       IP_PT1
      000000B8H.5 SFRSYM    DATA     BIT       IP_PT2
      0000008AH   SFRSYM    DATA     BYTE      TL0
      000000B1H   SFRSYM    DATA     BYTE      OSCXCN
      000000AAH   SFRSYM    DATA     BYTE      CS0CF
      000000D0H.5 SFRSYM    DATA     BIT       PSW_F0
      000000A8H.6 SFRSYM    DATA     BIT       IE_ESPI0
      0000008BH   SFRSYM    DATA     BYTE      TL1
      000000F9H   SFRSYM    DATA     BYTE      PCA0L
LX51 LINKER/LOCATER V4.66.30.0                                                        05/12/2018  01:06:07  PAGE 15


      000000D0H.1 SFRSYM    DATA     BIT       PSW_F1
      00000080H   SFRSYM    DATA     BIT       P0_B0
      000000B8H   SFRSYM    DATA     BIT       IP_PX0
      00000090H   SFRSYM    DATA     BIT       P1_B0
      00000080H.1 SFRSYM    DATA     BIT       P0_B1
      000000B8H.2 SFRSYM    DATA     BIT       IP_PX1
      000000EEH   SFRSYM    DATA     BYTE      CS0DH
      00000088H.1 SFRSYM    DATA     BIT       TCON_IE0
      000000C0H.7 SFRSYM    DATA     BIT       SMB0CN_MASTER
      00000090H.1 SFRSYM    DATA     BIT       P1_B1
      00000080H.2 SFRSYM    DATA     BIT       P0_B2
      00000088H.3 SFRSYM    DATA     BIT       TCON_IE1
      000000C0H.1 SFRSYM    DATA     BIT       SMB0CN_ACK
      00000090H.2 SFRSYM    DATA     BIT       P1_B2
      00000080H.3 SFRSYM    DATA     BIT       P0_B3
      00000090H.3 SFRSYM    DATA     BIT       P1_B3
      00000080H.4 SFRSYM    DATA     BIT       P0_B4
      00000090H.4 SFRSYM    DATA     BIT       P1_B4
      00000080H.5 SFRSYM    DATA     BIT       P0_B5
      000000EDH   SFRSYM    DATA     BYTE      CS0DL
      00000080H   SFRSYM    DATA     BIT       SDA
      00000090H.5 SFRSYM    DATA     BIT       P1_B5
      00000080H.6 SFRSYM    DATA     BIT       P0_B6
      000000B0H   SFRSYM    DATA     BYTE      CS0CN
      000000C0H.6 SFRSYM    DATA     BIT       SMB0CN_TXMODE
      00000090H.6 SFRSYM    DATA     BIT       P1_B6
      00000080H.7 SFRSYM    DATA     BIT       P0_B7
      00000090H.7 SFRSYM    DATA     BIT       P1_B7
      000000A0H.7 SFRSYM    DATA     BIT       P2_B7
      00000083H   SFRSYM    DATA     BYTE      DPH
      000000E8H.5 SFRSYM    DATA     BIT       ADC0CN_ADINT
      000000C4H   SFRSYM    DATA     BYTE      ADC0GTH
      000000D0H.6 SFRSYM    DATA     BIT       PSW_AC
      000000DEH   SFRSYM    DATA     BYTE      CS0SE
      00000088H.5 SFRSYM    DATA     BIT       TCON_TF0
      00000098H   SFRSYM    DATA     BIT       SCON0_RI
      00000082H   SFRSYM    DATA     BYTE      DPL
      00000088H.7 SFRSYM    DATA     BIT       TCON_TF1
      00000099H   SFRSYM    DATA     BYTE      SBUF0
      000000B9H   SFRSYM    DATA     BYTE      IREF0CF
      000000C3H   SFRSYM    DATA     BYTE      ADC0GTL
      00000080H.1 SFRSYM    DATA     BIT       SCL
      00000098H.1 SFRSYM    DATA     BIT       SCON0_TI
      000000C6H   SFRSYM    DATA     BYTE      ADC0LTH
      00000088H   SFRSYM    DATA     BIT       TCON_IT0
      000000B0H.7 SFRSYM    DATA     BIT       CS0CN_CSEN
      000000EFH   SFRSYM    DATA     BYTE      RSTSRC
      000000D7H   SFRSYM    DATA     BYTE      P0MAT
      00000086H   SFRSYM    DATA     BYTE      CRC0DAT
      00000088H.2 SFRSYM    DATA     BIT       TCON_IT1
      00000098H   SFRSYM    DATA     BYTE      SCON0
      000000CFH   SFRSYM    DATA     BYTE      P1MAT
      000000DEH   SFRSYM    DATA     BYTE      CS0PM
      000000F5H   SFRSYM    DATA     BYTE      SMB0ADM
      000000C5H   SFRSYM    DATA     BYTE      ADC0LTL
      000000B8H.6 SFRSYM    DATA     BIT       IP_PSPI0
      000000D6H   SFRSYM    DATA     BYTE      IREF0CN
      000000F4H   SFRSYM    DATA     BYTE      SMB0ADR
      00000088H.4 SFRSYM    DATA     BIT       TCON_TR0
      000000ABH   SFRSYM    DATA     BYTE      CS0MX
      00000088H.6 SFRSYM    DATA     BIT       TCON_TR1
      000000C2H   SFRSYM    DATA     BYTE      SMB0DAT
LX51 LINKER/LOCATER V4.66.30.0                                                        05/12/2018  01:06:07  PAGE 16


      00000099H   SFRSYM    DATA     BYTE      P0DRV
      000000DDH   SFRSYM    DATA     BYTE      CS0SS
      000000C0H.5 SFRSYM    DATA     BIT       SMB0CN_STA
      000000CDH   SFRSYM    DATA     BYTE      TMR2H
      000000A1H   SFRSYM    DATA     BYTE      SPI0CFG
      0000009BH   SFRSYM    DATA     BYTE      P1DRV
      00000095H   SFRSYM    DATA     BYTE      TMR3H
      0000009DH   SFRSYM    DATA     BYTE      P2DRV
      0000009AH   SFRSYM    DATA     BYTE      CRC0CNT
      0000008EH   SFRSYM    DATA     BYTE      CKCON
      000000C8H.2 SFRSYM    DATA     BIT       TMR2CN_TR2
      000000CCH   SFRSYM    DATA     BYTE      TMR2L
      000000ACH   SFRSYM    DATA     BYTE      RTC0ADR
      00000094H   SFRSYM    DATA     BYTE      TMR3L
      000000BBH   SFRSYM    DATA     BYTE      ADC0PWR
      000000D8H   SFRSYM    DATA     BIT       PCA0CN_CCF0
      000000A8H.7 SFRSYM    DATA     BIT       IE_EA
      000000ADH   SFRSYM    DATA     BYTE      RTC0DAT
      000000D8H.1 SFRSYM    DATA     BIT       PCA0CN_CCF1
      000000B6H   SFRSYM    DATA     BYTE      FLSCL
      000000D8H.2 SFRSYM    DATA     BIT       PCA0CN_CCF2
      000000D0H.7 SFRSYM    DATA     BIT       PSW_CY
      000000B0H   SFRSYM    DATA     BIT       CS0CN_CSCMPF
      000000A3H   SFRSYM    DATA     BYTE      SPI0DAT
      000000BDH   SFRSYM    DATA     WORD      ADC0
      0000008EH   SFRSYM    DATA     BYTE      TOFFH
      000000C0H.3 SFRSYM    DATA     BIT       SMB0CN_ACKRQ
      000000D0H   SFRSYM    DATA     BYTE      PSW
      000000DFH   SFRSYM    DATA     BYTE      PCA0PWM
      000000E2H   SFRSYM    DATA     BYTE      REVID
      000000C0H.4 SFRSYM    DATA     BIT       SMB0CN_STO
      0000008DH   SFRSYM    DATA     BYTE      TOFFL
      000000B7H   SFRSYM    DATA     BYTE      FLKEY
      000000BAH   SFRSYM    DATA     BYTE      ADC0AC

      01001287H   BLOCK     CODE     ---       LVL=0
      01001287H   LINE      CODE     ---       #91
      01001287H   LINE      CODE     ---       #92
      01001287H   LINE      CODE     ---       #94
      ---         BLOCKEND  ---      ---       LVL=0

      0100002EH   BLOCK     CODE     ---       LVL=0
      0100002EH   LINE      CODE     ---       #99
      0100002EH   LINE      CODE     ---       #100
      0100002EH   LINE      CODE     ---       #102
      01000031H   LINE      CODE     ---       #103
      01000034H   LINE      CODE     ---       #104
      01000037H   LINE      CODE     ---       #106
      0100003AH   LINE      CODE     ---       #107
      ---         BLOCKEND  ---      ---       LVL=0
      00000007H   SYMBOL    DATA     CHAR      c

      01001093H   BLOCK     CODE     ---       LVL=0
      01001093H   BLOCK     CODE     NEAR LAB  LVL=1
      00000057H   SYMBOL    DATA     WORD      i
      ---         BLOCKEND  ---      ---       LVL=1
      01001093H   LINE      CODE     ---       #145
      01001093H   LINE      CODE     ---       #146
      01001093H   LINE      CODE     ---       #147
      01001098H   LINE      CODE     ---       #148
      0100109AH   LINE      CODE     ---       #151
      0100109AH   LINE      CODE     ---       #152
LX51 LINKER/LOCATER V4.66.30.0                                                        05/12/2018  01:06:07  PAGE 17


      0100109AH   LINE      CODE     ---       #153
      010010A2H   LINE      CODE     ---       #154
      010010A4H   LINE      CODE     ---       #155
      010010ACH   LINE      CODE     ---       #156
      010010B5H   LINE      CODE     ---       #158
      010010B7H   LINE      CODE     ---       #159
      010010BAH   LINE      CODE     ---       #160
      010010BDH   LINE      CODE     ---       #161
      010010C0H   LINE      CODE     ---       #162
      010010C3H   LINE      CODE     ---       #163
      010010C5H   LINE      CODE     ---       #164
      010010C8H   LINE      CODE     ---       #165
      010010CBH   LINE      CODE     ---       #166
      010010CEH   LINE      CODE     ---       #167
      010010D1H   LINE      CODE     ---       #168
      010010D3H   LINE      CODE     ---       #169
      010010DEH   LINE      CODE     ---       #170
      010010DEH   LINE      CODE     ---       #171
      010010E6H   LINE      CODE     ---       #172
      010010E8H   LINE      CODE     ---       #173
      010010F0H   LINE      CODE     ---       #174
      010010F2H   LINE      CODE     ---       #176
      010010FBH   LINE      CODE     ---       #178
      ---         BLOCKEND  ---      ---       LVL=0

      01000003H   BLOCK     CODE     ---       LVL=0
      0000007DH   SYMBOL    DATA     BYTE      Addr
      00000005H   SYMBOL    DATA     BYTE      Reg
      01000003H   LINE      CODE     ---       #181
      01000005H   LINE      CODE     ---       #182
      01000005H   LINE      CODE     ---       #183
      01000007H   LINE      CODE     ---       #184
      0100000AH   LINE      CODE     ---       #185
      0100000DH   LINE      CODE     ---       #186
      0100000FH   LINE      CODE     ---       #187
      01000012H   LINE      CODE     ---       #188
      01000015H   LINE      CODE     ---       #189
      01000018H   LINE      CODE     ---       #190
      0100001EH   LINE      CODE     ---       #191
      01000021H   LINE      CODE     ---       #192
      01000023H   LINE      CODE     ---       #194
      ---         BLOCKEND  ---      ---       LVL=0

      01001213H   BLOCK     CODE     ---       LVL=0
      00000007H   SYMBOL    DATA     BYTE      Addr
      00000005H   SYMBOL    DATA     BYTE      Reg
      00000003H   SYMBOL    DATA     BYTE      Dat
      01001213H   LINE      CODE     ---       #196
      01001213H   LINE      CODE     ---       #197
      01001213H   LINE      CODE     ---       #198
      01001215H   LINE      CODE     ---       #199
      01001218H   LINE      CODE     ---       #200
      0100121AH   LINE      CODE     ---       #201
      0100121DH   LINE      CODE     ---       #202
      0100121FH   LINE      CODE     ---       #203
      01001221H   LINE      CODE     ---       #204
      ---         BLOCKEND  ---      ---       LVL=0

      01000DE3H   BLOCK     CODE     ---       LVL=0
      00000004H   SYMBOL    DATA     WORD      adc
      01000DE7H   BLOCK     CODE     NEAR LAB  LVL=1
      00000057H   SYMBOL    DATA     LONG      t_fine
LX51 LINKER/LOCATER V4.66.30.0                                                        05/12/2018  01:06:07  PAGE 18


      0000005BH   SYMBOL    DATA     LONG      calc_result
      0000005FH   SYMBOL    DATA     LONG      var1
      00000063H   SYMBOL    DATA     LONG      var2
      00000067H   SYMBOL    DATA     LONG      var3
      00000006H   SYMBOL    DATA     WORD      par_t1
      0000006BH   SYMBOL    DATA     INT       par_t2
      0000006DH   SYMBOL    DATA     CHAR      par_t3
      ---         BLOCKEND  ---      ---       LVL=1
      01000DE3H   LINE      CODE     ---       #207
      01000DE7H   LINE      CODE     ---       #208
      01000DE7H   LINE      CODE     ---       #214
      01000DEBH   LINE      CODE     ---       #215
      01000DF1H   LINE      CODE     ---       #216
      01000DF4H   LINE      CODE     ---       #217
      01000E14H   LINE      CODE     ---       #218
      01000E36H   LINE      CODE     ---       #219
      01000E70H   LINE      CODE     ---       #220
      01000EA2H   LINE      CODE     ---       #221
      01000EBAH   LINE      CODE     ---       #222
      01000EE5H   LINE      CODE     ---       #223
      01000EFEH   LINE      CODE     ---       #224
      01000EFEH   LINE      CODE     ---       #225
      ---         BLOCKEND  ---      ---       LVL=0

      010005A6H   BLOCK     CODE     ---       LVL=0
      00000057H   SYMBOL    DATA     WORD      adc
      010005AAH   BLOCK     CODE     NEAR LAB  LVL=1
      00000059H   SYMBOL    DATA     LONG      var3
      0000005DH   SYMBOL    DATA     LONG      var4
      00000061H   SYMBOL    DATA     LONG      var5
      00000065H   SYMBOL    DATA     LONG      var6
      00000069H   SYMBOL    DATA     WORD      par_h1
      0000006BH   SYMBOL    DATA     WORD      par_h2
      0000006DH   SYMBOL    DATA     CHAR      par_h3
      0000006EH   SYMBOL    DATA     CHAR      par_h4
      0000006FH   SYMBOL    DATA     CHAR      par_h5
      00000070H   SYMBOL    DATA     BYTE      par_h6
      00000071H   SYMBOL    DATA     CHAR      par_h7
      ---         BLOCKEND  ---      ---       LVL=1
      010005A6H   LINE      CODE     ---       #226
      010005AAH   LINE      CODE     ---       #227
      010005AAH   LINE      CODE     ---       #233
      010005D1H   LINE      CODE     ---       #234
      01000603H   LINE      CODE     ---       #235
      0100060CH   LINE      CODE     ---       #236
      01000615H   LINE      CODE     ---       #237
      0100061EH   LINE      CODE     ---       #238
      01000627H   LINE      CODE     ---       #239
      01000630H   LINE      CODE     ---       #243
      01000696H   LINE      CODE     ---       #247
      01000729H   LINE      CODE     ---       #250
      01000744H   LINE      CODE     ---       #252
      01000757H   LINE      CODE     ---       #254
      01000791H   LINE      CODE     ---       #256
      010007CBH   LINE      CODE     ---       #258
      010007EBH   LINE      CODE     ---       #260
      0100081BH   LINE      CODE     ---       #261
      0100082BH   LINE      CODE     ---       #262
      01000841H   LINE      CODE     ---       #263
      0100084FH   LINE      CODE     ---       #264
      0100085BH   LINE      CODE     ---       #265
      01000864H   LINE      CODE     ---       #266
LX51 LINKER/LOCATER V4.66.30.0                                                        05/12/2018  01:06:07  PAGE 19


      0100087EH   LINE      CODE     ---       #269
      01000880H   LINE      CODE     ---       #271
      ---         BLOCKEND  ---      ---       LVL=0

      01000881H   BLOCK     CODE     ---       LVL=0
      00000057H   SYMBOL    DATA     WORD      gas_res_adc
      01000885H   BLOCK     CODE     NEAR LAB  LVL=1
      00000059H   SYMBOL    DATA     FLOAT     value1
      0000005DH   SYMBOL    DATA     FLOAT     value2
      00000061H   SYMBOL    DATA     FLOAT     var1
      00000065H   SYMBOL    DATA     FLOAT     var2
      00000069H   SYMBOL    DATA     FLOAT     var3
      0000006DH   SYMBOL    DATA     WORD      range_sw_err
      0000006FH   SYMBOL    DATA     LONG      calc_gas_res
      ---         BLOCKEND  ---      ---       LVL=1
      01000881H   LINE      CODE     ---       #272
      01000885H   LINE      CODE     ---       #273
      01000885H   LINE      CODE     ---       #281
      010008A0H   LINE      CODE     ---       #289
      010008B4H   LINE      CODE     ---       #293
      010008D5H   LINE      CODE     ---       #294
      010008D5H   LINE      CODE     ---       #295
      010008DDH   LINE      CODE     ---       #296
      010008F3H   LINE      CODE     ---       #297
      010008F3H   LINE      CODE     ---       #298
      010008FCH   LINE      CODE     ---       #299
      01000912H   LINE      CODE     ---       #300
      01000912H   LINE      CODE     ---       #301
      0100091EH   LINE      CODE     ---       #302
      01000934H   LINE      CODE     ---       #303
      01000934H   LINE      CODE     ---       #304
      0100093DH   LINE      CODE     ---       #305
      0100093FH   LINE      CODE     ---       #306
      01000948H   LINE      CODE     ---       #307
      01000948H   LINE      CODE     ---       #309
      0100095CH   LINE      CODE     ---       #310
      0100095CH   LINE      CODE     ---       #311
      01000968H   LINE      CODE     ---       #312
      0100097EH   LINE      CODE     ---       #313
      0100097EH   LINE      CODE     ---       #314
      01000989H   LINE      CODE     ---       #315
      0100099FH   LINE      CODE     ---       #316
      0100099FH   LINE      CODE     ---       #317
      010009ABH   LINE      CODE     ---       #318
      010009C1H   LINE      CODE     ---       #319
      010009C1H   LINE      CODE     ---       #320
      010009CDH   LINE      CODE     ---       #321
      010009CFH   LINE      CODE     ---       #322
      010009D8H   LINE      CODE     ---       #323
      010009D8H   LINE      CODE     ---       #324
      010009FDH   LINE      CODE     ---       #325
      01000A2CH   LINE      CODE     ---       #326
      01000A50H   LINE      CODE     ---       #327
      01000AE3H   LINE      CODE     ---       #331
      01000AEBH   LINE      CODE     ---       #333
      ---         BLOCKEND  ---      ---       LVL=0

      01000AECH   BLOCK     CODE     ---       LVL=0
      01000AECH   BLOCK     CODE     NEAR LAB  LVL=1
      0000005BH   SYMBOL    DATA     LONG      var1
      0000005FH   SYMBOL    DATA     LONG      var2
      00000063H   SYMBOL    DATA     LONG      var3
LX51 LINKER/LOCATER V4.66.30.0                                                        05/12/2018  01:06:07  PAGE 20


      00000067H   SYMBOL    DATA     LONG      var4
      0000006BH   SYMBOL    DATA     LONG      var5
      0000006FH   SYMBOL    DATA     WORD      res_heat_range
      00000071H   SYMBOL    DATA     CHAR      res_heat_val
      00000072H   SYMBOL    DATA     BYTE      par_g1
      00000073H   SYMBOL    DATA     WORD      par_g2
      00000075H   SYMBOL    DATA     BYTE      par_g3
      00000076H   SYMBOL    DATA     BYTE      heatr_res
      00000077H   SYMBOL    DATA     LONG      heatr_res_x100
      0000007BH   SYMBOL    DATA     INT       temp
      ---         BLOCKEND  ---      ---       LVL=1
      01000AECH   LINE      CODE     ---       #334
      01000AECH   LINE      CODE     ---       #335
      01000AECH   LINE      CODE     ---       #343
      01000B07H   LINE      CODE     ---       #344
      01000B10H   LINE      CODE     ---       #345
      01000B13H   LINE      CODE     ---       #346
      01000B19H   LINE      CODE     ---       #347
      01000B1CH   LINE      CODE     ---       #352
      01000B22H   LINE      CODE     ---       #356
      01000B2FH   LINE      CODE     ---       #357
      01000B35H   LINE      CODE     ---       #358
      01000B43H   LINE      CODE     ---       #359
      01000B4DH   LINE      CODE     ---       #360
      01000B79H   LINE      CODE     ---       #361
      01000BE1H   LINE      CODE     ---       #362
      01000C06H   LINE      CODE     ---       #363
      01000C27H   LINE      CODE     ---       #364
      01000C4CH   LINE      CODE     ---       #365
      01000C80H   LINE      CODE     ---       #366
      01000C9CH   LINE      CODE     ---       #368
      01000C9EH   LINE      CODE     ---       #369
      ---         BLOCKEND  ---      ---       LVL=0

      0100126BH   BLOCK     CODE     ---       LVL=0
      0100126BH   LINE      CODE     ---       #370
      0100126BH   LINE      CODE     ---       #371
      0100126BH   LINE      CODE     ---       #374
      0100126EH   LINE      CODE     ---       #376
      ---         BLOCKEND  ---      ---       LVL=0

      0100126FH   BLOCK     CODE     ---       LVL=0
      0100126FH   LINE      CODE     ---       #377
      0100126FH   LINE      CODE     ---       #378
      0100126FH   LINE      CODE     ---       #379
      01001272H   LINE      CODE     ---       #386
      ---         BLOCKEND  ---      ---       LVL=0

      010011DDH   BLOCK     CODE     ---       LVL=0
      010011DDH   LINE      CODE     ---       #387
      010011DDH   LINE      CODE     ---       #388
      010011DDH   LINE      CODE     ---       #389
      010011E0H   LINE      CODE     ---       #398
      010011E3H   LINE      CODE     ---       #411
      010011E6H   LINE      CODE     ---       #431
      010011E9H   LINE      CODE     ---       #439
      010011ECH   LINE      CODE     ---       #446
      010011EEH   LINE      CODE     ---       #455
      ---         BLOCKEND  ---      ---       LVL=0

      010010FCH   BLOCK     CODE     ---       LVL=0
      010010FCH   BLOCK     CODE     NEAR LAB  LVL=1
LX51 LINKER/LOCATER V4.66.30.0                                                        05/12/2018  01:06:07  PAGE 21


      00000057H   SYMBOL    DATA     DWORD     i
      ---         BLOCKEND  ---      ---       LVL=1
      010010FCH   LINE      CODE     ---       #456
      010010FCH   LINE      CODE     ---       #457
      010010FCH   LINE      CODE     ---       #459
      01001105H   LINE      CODE     ---       #461
      0100110EH   LINE      CODE     ---       #464
      01001117H   LINE      CODE     ---       #465
      01001120H   LINE      CODE     ---       #466
      01001129H   LINE      CODE     ---       #467
      01001135H   LINE      CODE     ---       #468
      0100113EH   LINE      CODE     ---       #470
      ---         BLOCKEND  ---      ---       LVL=0

      01000C9FH   BLOCK     CODE     ---       LVL=0
      01000C9FH   BLOCK     CODE     NEAR LAB  LVL=1
      00000006H   SYMBOL    DATA     WORD      i
      ---         BLOCKEND  ---      ---       LVL=1
      01000C9FH   LINE      CODE     ---       #477
      01000C9FH   LINE      CODE     ---       #478
      01000C9FH   LINE      CODE     ---       #482
      01000CA2H   LINE      CODE     ---       #485
      01000CA5H   LINE      CODE     ---       #486
      01000CA5H   LINE      CODE     ---       #489
      01000CA8H   LINE      CODE     ---       #490
      01000CAAH   LINE      CODE     ---       #491
      01000CB7H   LINE      CODE     ---       #492
      01000CB9H   LINE      CODE     ---       #493
      01000CBCH   LINE      CODE     ---       #495
      01000CCAH   LINE      CODE     ---       #496
      01000CCDH   LINE      CODE     ---       #497
      01000CCFH   LINE      CODE     ---       #499
      01000CD2H   LINE      CODE     ---       #501
      01000CD5H   LINE      CODE     ---       #522
      01000CD8H   LINE      CODE     ---       #523
      01000CDAH   LINE      CODE     ---       #525
      01000CDCH   LINE      CODE     ---       #527
      01000CDEH   LINE      CODE     ---       #530
      01000CDEH   LINE      CODE     ---       #533
      01000CE6H   LINE      CODE     ---       #534
      01000CF4H   LINE      CODE     ---       #535
      01000CF4H   LINE      CODE     ---       #537
      01000D03H   LINE      CODE     ---       #538
      01000D03H   LINE      CODE     ---       #539
      01000D05H   LINE      CODE     ---       #540
      01000D08H   LINE      CODE     ---       #541
      01000D36H   LINE      CODE     ---       #542
      01000D61H   LINE      CODE     ---       #543
      01000D63H   LINE      CODE     ---       #544
      01000D63H   LINE      CODE     ---       #545
      01000D6EH   LINE      CODE     ---       #546
      01000D6EH   LINE      CODE     ---       #547
      01000D70H   LINE      CODE     ---       #548
      01000D73H   LINE      CODE     ---       #549
      01000D7EH   LINE      CODE     ---       #550
      01000DB8H   LINE      CODE     ---       #551
      01000DBAH   LINE      CODE     ---       #552
      01000DC6H   LINE      CODE     ---       #553
      01000DC6H   LINE      CODE     ---       #555
      01000DC6H   LINE      CODE     ---       #559
      01000DC8H   LINE      CODE     ---       #585
      01000DDAH   LINE      CODE     ---       #586
LX51 LINKER/LOCATER V4.66.30.0                                                        05/12/2018  01:06:07  PAGE 22


      01000DDAH   LINE      CODE     ---       #587
      01000DDFH   LINE      CODE     ---       #588
      01000DDFH   LINE      CODE     ---       #594
      01000DDFH   LINE      CODE     ---       #596
      01000DE2H   LINE      CODE     ---       #597
      ---         BLOCKEND  ---      ---       LVL=0

      01001224H   BLOCK     CODE     ---       LVL=0
      01001224H   LINE      CODE     ---       #599
      01001224H   LINE      CODE     ---       #600
      01001224H   LINE      CODE     ---       #601
      01001227H   LINE      CODE     ---       #602
      01001229H   LINE      CODE     ---       #603
      0100122BH   LINE      CODE     ---       #604
      0100122DH   LINE      CODE     ---       #605
      01001230H   LINE      CODE     ---       #607
      ---         BLOCKEND  ---      ---       LVL=0

      01001231H   BLOCK     CODE     ---       LVL=0
      01001231H   LINE      CODE     ---       #608
      01001231H   LINE      CODE     ---       #609
      01001231H   LINE      CODE     ---       #610
      01001234H   LINE      CODE     ---       #611
      01001236H   LINE      CODE     ---       #612
      01001238H   LINE      CODE     ---       #613
      0100123AH   LINE      CODE     ---       #614
      0100123DH   LINE      CODE     ---       #615
      ---         BLOCKEND  ---      ---       LVL=0

      0100118BH   BLOCK     CODE     ---       LVL=0
      0100118BH   LINE      CODE     ---       #617
      0100118DH   LINE      CODE     ---       #620
      01001190H   LINE      CODE     ---       #621
      0100119CH   LINE      CODE     ---       #622
      010011A4H   LINE      CODE     ---       #626
      010011A6H   LINE      CODE     ---       #631
      010011A9H   LINE      CODE     ---       #633
      ---         BLOCKEND  ---      ---       LVL=0

      ---         MODULE    ---      ---       INITDEVICE
      01001201H   PUBLIC    CODE     ---       enter_Mode2_from_DefaultMode
      010011ACH   PUBLIC    CODE     ---       TIMER16_2_enter_DefaultMode_from_RESET
      01001283H   PUBLIC    CODE     ---       UART_0_enter_DefaultMode_from_RESET
      01001264H   PUBLIC    CODE     ---       INTERRUPT_0_enter_Mode2_from_DefaultMode
      0100127FH   PUBLIC    CODE     ---       SMBUS_0_enter_Mode2_from_DefaultMode
      0100123EH   PUBLIC    CODE     ---       TIMER_SETUP_0_enter_Mode2_from_DefaultMode
      0100124BH   PUBLIC    CODE     ---       TIMER00_0_enter_Mode2_from_DefaultMode
      0100125DH   PUBLIC    CODE     ---       PBCFG_0_enter_Mode2_from_DefaultMode
      01001256H   PUBLIC    CODE     ---       PORTS_1_enter_Mode2_from_DefaultMode
      0100127BH   PUBLIC    CODE     ---       CLOCK_0_enter_DefaultMode_from_RESET
      01001277H   PUBLIC    CODE     ---       HFOSC_0_enter_DefaultMode_from_RESET
      01001273H   PUBLIC    CODE     ---       VREG_0_enter_DefaultMode_from_RESET
      01000024H   PUBLIC    CODE     ---       PCA_0_enter_DefaultMode_from_RESET
      010011EFH   PUBLIC    CODE     ---       enter_DefaultMode_from_RESET
      000000A2H   SFRSYM    DATA     BYTE      SPI0CKR
      00000080H   SFRSYM    DATA     BYTE      P0
      000000D0H.2 SFRSYM    DATA     BIT       PSW_OV
      000000D8H.7 SFRSYM    DATA     BIT       PCA0CN_CF
      00000090H   SFRSYM    DATA     BYTE      P1
      000000F8H.4 SFRSYM    DATA     BIT       SPI0CN_RXOVRN
      000000A0H   SFRSYM    DATA     BYTE      P2
      00000097H   SFRSYM    DATA     BYTE      ADC0CF
LX51 LINKER/LOCATER V4.66.30.0                                                        05/12/2018  01:06:07  PAGE 23


      000000C8H   SFRSYM    DATA     BIT       TMR2CN_T2XCLK0
      000000C8H.1 SFRSYM    DATA     BIT       TMR2CN_T2XCLK1
      000000E8H.7 SFRSYM    DATA     BIT       ADC0CN_ADEN
      000000F9H   SFRSYM    DATA     WORD      PCA0
      000000AEH   SFRSYM    DATA     BYTE      RTC0KEY
      000000E6H   SFRSYM    DATA     BYTE      EIE1
      000000E7H   SFRSYM    DATA     BYTE      EIE2
      0000008FH   SFRSYM    DATA     BYTE      PSCTL
      000000E4H   SFRSYM    DATA     BYTE      IT01CF
      000000E3H   SFRSYM    DATA     BYTE      DERIVID
      000000AFH   SFRSYM    DATA     BYTE      CS0MD1
      000000A7H   SFRSYM    DATA     BYTE      SFRPAGE
      000000F3H   SFRSYM    DATA     BYTE      CS0MD2
      000000E8H   SFRSYM    DATA     BYTE      ADC0CN
      000000A4H   SFRSYM    DATA     BYTE      P0MDOUT
      000000F3H   SFRSYM    DATA     BYTE      CS0MD3
      000000D8H.6 SFRSYM    DATA     BIT       PCA0CN_CR
      000000A5H   SFRSYM    DATA     BYTE      P1MDOUT
      000000CBH   SFRSYM    DATA     BYTE      TMR2RLH
      000000A6H   SFRSYM    DATA     BYTE      P2MDOUT
      000000A8H   SFRSYM    DATA     BYTE      IE
      00000093H   SFRSYM    DATA     BYTE      TMR3RLH
      000000F6H   SFRSYM    DATA     BYTE      EIP1
      000000F8H   SFRSYM    DATA     BIT       SPI0CN_SPIEN
      000000F7H   SFRSYM    DATA     BYTE      EIP2
      00000098H.2 SFRSYM    DATA     BIT       SCON0_RB8
      000000CAH   SFRSYM    DATA     BYTE      TMR2RLL
      000000FCH   SFRSYM    DATA     BYTE      PCA0CPH0
      00000092H   SFRSYM    DATA     BYTE      TMR3RLL
      000000EAH   SFRSYM    DATA     BYTE      PCA0CPH1
      00000098H.3 SFRSYM    DATA     BIT       SCON0_TB8
      000000F0H   SFRSYM    DATA     BIT       B_B0
      00000082H   SFRSYM    DATA     WORD      DP
      000000ECH   SFRSYM    DATA     BYTE      PCA0CPH2
      000000B0H.4 SFRSYM    DATA     BIT       CS0CN_CSBUSY
      000000F0H.1 SFRSYM    DATA     BIT       B_B1
      000000E8H.6 SFRSYM    DATA     BIT       ADC0CN_ADBMEN
      000000C3H   SFRSYM    DATA     WORD      ADC0GT
      000000F0H.2 SFRSYM    DATA     BIT       B_B2
      000000FBH   SFRSYM    DATA     BYTE      PCA0CPL0
      000000F0H.3 SFRSYM    DATA     BIT       B_B3
      000000D9H   SFRSYM    DATA     BYTE      PCA0MD
      000000DAH   SFRSYM    DATA     BYTE      PCA0CPM0
      000000E9H   SFRSYM    DATA     BYTE      PCA0CPL1
      000000D8H   SFRSYM    DATA     BYTE      PCA0CN
      000000F0H.4 SFRSYM    DATA     BIT       B_B4
      000000DBH   SFRSYM    DATA     BYTE      PCA0CPM1
      000000EBH   SFRSYM    DATA     BYTE      PCA0CPL2
      000000F0H.5 SFRSYM    DATA     BIT       B_B5
      000000DCH   SFRSYM    DATA     BYTE      PCA0CPM2
      000000B8H   SFRSYM    DATA     BYTE      IP
      000000BCH   SFRSYM    DATA     BYTE      ADC0TK
      000000F0H.6 SFRSYM    DATA     BIT       B_B6
      000000C5H   SFRSYM    DATA     WORD      ADC0LT
      00000098H.5 SFRSYM    DATA     BIT       SCON0_MCE
      000000F0H.7 SFRSYM    DATA     BIT       B_B7
      00000084H   SFRSYM    DATA     BYTE      CRC0CN
      000000E1H   SFRSYM    DATA     BYTE      XBR0
      000000C1H   SFRSYM    DATA     BYTE      SMB0CF
      000000E2H   SFRSYM    DATA     BYTE      XBR1
      000000D2H   SFRSYM    DATA     BYTE      CS0SCAN0
      000000E3H   SFRSYM    DATA     BYTE      XBR2
LX51 LINKER/LOCATER V4.66.30.0                                                        05/12/2018  01:06:07  PAGE 24


      000000D3H   SFRSYM    DATA     BYTE      CS0SCAN1
      00000096H   SFRSYM    DATA     BYTE      ADC0MX
      000000C0H.2 SFRSYM    DATA     BIT       SMB0CN_ARBLOST
      000000E0H   SFRSYM    DATA     BIT       ACC_ACC0
      000000D1H   SFRSYM    DATA     BYTE      REF0CN
      000000F8H.1 SFRSYM    DATA     BIT       SPI0CN_TXBMT
      000000E0H.1 SFRSYM    DATA     BIT       ACC_ACC1
      000000C9H   SFRSYM    DATA     BYTE      REG0CN
      00000085H   SFRSYM    DATA     BYTE      CRC0IN
      000000C0H   SFRSYM    DATA     BIT       SMB0CN_SI
      000000E0H.2 SFRSYM    DATA     BIT       ACC_ACC2
      000000E0H.3 SFRSYM    DATA     BIT       ACC_ACC3
      00000081H   SFRSYM    DATA     BYTE      SP
      000000E0H.4 SFRSYM    DATA     BIT       ACC_ACC4
      000000E0H.5 SFRSYM    DATA     BIT       ACC_ACC5
      000000C0H   SFRSYM    DATA     BYTE      SMB0CN
      000000E0H.6 SFRSYM    DATA     BIT       ACC_ACC6
      000000CCH   SFRSYM    DATA     WORD      TMR2
      000000E0H.7 SFRSYM    DATA     BIT       ACC_ACC7
      00000094H   SFRSYM    DATA     WORD      TMR3
      000000FFH   SFRSYM    DATA     BYTE      VDM0CN
      000000F1H   SFRSYM    DATA     BYTE      P0MDIN
      0000009DH   SFRSYM    DATA     BYTE      CPT0MD
      0000009BH   SFRSYM    DATA     BYTE      CPT0CN
      00000098H.4 SFRSYM    DATA     BIT       SCON0_REN
      000000F2H   SFRSYM    DATA     BYTE      P1MDIN
      000000FEH   SFRSYM    DATA     BYTE      CS0THH
      000000B5H   SFRSYM    DATA     BYTE      PMU0CF
      000000C8H.7 SFRSYM    DATA     BIT       TMR2CN_TF2H
      000000C8H.3 SFRSYM    DATA     BIT       TMR2CN_T2SPLIT
      000000C7H   SFRSYM    DATA     BYTE      P0MASK
      000000F8H   SFRSYM    DATA     BYTE      SPI0CN
      000000BFH   SFRSYM    DATA     BYTE      P1MASK
      000000FDH   SFRSYM    DATA     BYTE      CS0THL
      000000D0H.3 SFRSYM    DATA     BIT       PSW_RS0
      00000087H   SFRSYM    DATA     BYTE      PCON
      000000C8H.6 SFRSYM    DATA     BIT       TMR2CN_TF2L
      000000D0H.4 SFRSYM    DATA     BIT       PSW_RS1
      000000E8H   SFRSYM    DATA     BIT       ADC0CN_ADCM0
      000000B0H.1 SFRSYM    DATA     BIT       CS0CN_CSPME
      000000E8H.1 SFRSYM    DATA     BIT       ADC0CN_ADCM1
      000000E8H.2 SFRSYM    DATA     BIT       ADC0CN_ADCM2
      000000E8H.3 SFRSYM    DATA     BIT       ADC0CN_ADWINT
      00000089H   SFRSYM    DATA     BYTE      TMOD
      00000088H   SFRSYM    DATA     BYTE      TCON
      000000B5H   SFRSYM    DATA     BYTE      PMU0MD
      000000E8H.4 SFRSYM    DATA     BIT       ADC0CN_ADBUSY
      000000CEH   SFRSYM    DATA     BYTE      PMU0FL
      0000009CH   SFRSYM    DATA     BYTE      CRC0FLIP
      000000F8H.5 SFRSYM    DATA     BIT       SPI0CN_MODF
      000000D0H   SFRSYM    DATA     BIT       PSW_PARITY
      000000A8H.4 SFRSYM    DATA     BIT       IE_ES0
      000000A8H.1 SFRSYM    DATA     BIT       IE_ET0
      000000B0H.6 SFRSYM    DATA     BIT       CS0CN_CSEOS
      000000C8H   SFRSYM    DATA     BYTE      TMR2CN
      000000A8H.3 SFRSYM    DATA     BIT       IE_ET1
      00000091H   SFRSYM    DATA     BYTE      TMR3CN
      000000D4H   SFRSYM    DATA     BYTE      P0SKIP
      000000A8H.5 SFRSYM    DATA     BIT       IE_ET2
      000000D5H   SFRSYM    DATA     BYTE      P1SKIP
      000000A8H   SFRSYM    DATA     BIT       IE_EX0
      000000B0H.5 SFRSYM    DATA     BIT       CS0CN_CSINT
LX51 LINKER/LOCATER V4.66.30.0                                                        05/12/2018  01:06:07  PAGE 25


      000000E5H   SFRSYM    DATA     BYTE      FLWR
      000000C8H.4 SFRSYM    DATA     BIT       TMR2CN_TF2CEN
      000000A8H.2 SFRSYM    DATA     BIT       IE_EX1
      0000009FH   SFRSYM    DATA     BYTE      CPT0MX
      00000098H.7 SFRSYM    DATA     BIT       SCON0_SMODE
      000000B3H   SFRSYM    DATA     BYTE      OSCICL
      000000A9H   SFRSYM    DATA     BYTE      CLKSEL
      000000B2H   SFRSYM    DATA     BYTE      OSCICN
      000000F0H   SFRSYM    DATA     BYTE      B
      000000BEH   SFRSYM    DATA     BYTE      ADC0H
      000000F8H.7 SFRSYM    DATA     BIT       SPI0CN_SPIF
      0000009EH   SFRSYM    DATA     BYTE      CRC0AUTO
      000000B0H.3 SFRSYM    DATA     BIT       CS0CN_CSCMPEN
      000000CAH   SFRSYM    DATA     WORD      TMR2RL
      000000BDH   SFRSYM    DATA     BYTE      ADC0L
      000000C8H.5 SFRSYM    DATA     BIT       TMR2CN_TF2LEN
      000000F8H.6 SFRSYM    DATA     BIT       SPI0CN_WCOL
      00000092H   SFRSYM    DATA     WORD      TMR3RL
      000000F8H.2 SFRSYM    DATA     BIT       SPI0CN_NSSMD0
      000000E0H   SFRSYM    DATA     BYTE      ACC
      000000F8H.3 SFRSYM    DATA     BIT       SPI0CN_NSSMD1
      000000FBH   SFRSYM    DATA     WORD      PCA0CP0
      000000E9H   SFRSYM    DATA     WORD      PCA0CP1
      000000EBH   SFRSYM    DATA     WORD      PCA0CP2
      0000008CH   SFRSYM    DATA     BYTE      TH0
      000000B8H.4 SFRSYM    DATA     BIT       IP_PS0
      0000008DH   SFRSYM    DATA     BYTE      TH1
      000000FAH   SFRSYM    DATA     BYTE      PCA0H
      000000B8H.1 SFRSYM    DATA     BIT       IP_PT0
      000000B8H.3 SFRSYM    DATA     BIT       IP_PT1
      000000B8H.5 SFRSYM    DATA     BIT       IP_PT2
      0000008AH   SFRSYM    DATA     BYTE      TL0
      000000B1H   SFRSYM    DATA     BYTE      OSCXCN
      000000AAH   SFRSYM    DATA     BYTE      CS0CF
      000000D0H.5 SFRSYM    DATA     BIT       PSW_F0
      000000A8H.6 SFRSYM    DATA     BIT       IE_ESPI0
      0000008BH   SFRSYM    DATA     BYTE      TL1
      000000F9H   SFRSYM    DATA     BYTE      PCA0L
      000000D0H.1 SFRSYM    DATA     BIT       PSW_F1
      00000080H   SFRSYM    DATA     BIT       P0_B0
      000000B8H   SFRSYM    DATA     BIT       IP_PX0
      00000090H   SFRSYM    DATA     BIT       P1_B0
      00000080H.1 SFRSYM    DATA     BIT       P0_B1
      000000B8H.2 SFRSYM    DATA     BIT       IP_PX1
      000000EEH   SFRSYM    DATA     BYTE      CS0DH
      00000088H.1 SFRSYM    DATA     BIT       TCON_IE0
      000000C0H.7 SFRSYM    DATA     BIT       SMB0CN_MASTER
      00000090H.1 SFRSYM    DATA     BIT       P1_B1
      00000080H.2 SFRSYM    DATA     BIT       P0_B2
      00000088H.3 SFRSYM    DATA     BIT       TCON_IE1
      000000C0H.1 SFRSYM    DATA     BIT       SMB0CN_ACK
      00000090H.2 SFRSYM    DATA     BIT       P1_B2
      00000080H.3 SFRSYM    DATA     BIT       P0_B3
      00000090H.3 SFRSYM    DATA     BIT       P1_B3
      00000080H.4 SFRSYM    DATA     BIT       P0_B4
      00000090H.4 SFRSYM    DATA     BIT       P1_B4
      00000080H.5 SFRSYM    DATA     BIT       P0_B5
      000000EDH   SFRSYM    DATA     BYTE      CS0DL
      00000090H.5 SFRSYM    DATA     BIT       P1_B5
      00000080H.6 SFRSYM    DATA     BIT       P0_B6
      000000B0H   SFRSYM    DATA     BYTE      CS0CN
      000000C0H.6 SFRSYM    DATA     BIT       SMB0CN_TXMODE
LX51 LINKER/LOCATER V4.66.30.0                                                        05/12/2018  01:06:07  PAGE 26


      00000090H.6 SFRSYM    DATA     BIT       P1_B6
      00000080H.7 SFRSYM    DATA     BIT       P0_B7
      00000090H.7 SFRSYM    DATA     BIT       P1_B7
      000000A0H.7 SFRSYM    DATA     BIT       P2_B7
      00000083H   SFRSYM    DATA     BYTE      DPH
      000000E8H.5 SFRSYM    DATA     BIT       ADC0CN_ADINT
      000000C4H   SFRSYM    DATA     BYTE      ADC0GTH
      000000D0H.6 SFRSYM    DATA     BIT       PSW_AC
      000000DEH   SFRSYM    DATA     BYTE      CS0SE
      00000088H.5 SFRSYM    DATA     BIT       TCON_TF0
      00000098H   SFRSYM    DATA     BIT       SCON0_RI
      00000082H   SFRSYM    DATA     BYTE      DPL
      00000088H.7 SFRSYM    DATA     BIT       TCON_TF1
      00000099H   SFRSYM    DATA     BYTE      SBUF0
      000000B9H   SFRSYM    DATA     BYTE      IREF0CF
      000000C3H   SFRSYM    DATA     BYTE      ADC0GTL
      00000098H.1 SFRSYM    DATA     BIT       SCON0_TI
      000000C6H   SFRSYM    DATA     BYTE      ADC0LTH
      00000088H   SFRSYM    DATA     BIT       TCON_IT0
      000000B0H.7 SFRSYM    DATA     BIT       CS0CN_CSEN
      000000EFH   SFRSYM    DATA     BYTE      RSTSRC
      000000D7H   SFRSYM    DATA     BYTE      P0MAT
      00000086H   SFRSYM    DATA     BYTE      CRC0DAT
      00000088H.2 SFRSYM    DATA     BIT       TCON_IT1
      00000098H   SFRSYM    DATA     BYTE      SCON0
      000000CFH   SFRSYM    DATA     BYTE      P1MAT
      000000DEH   SFRSYM    DATA     BYTE      CS0PM
      000000F5H   SFRSYM    DATA     BYTE      SMB0ADM
      000000C5H   SFRSYM    DATA     BYTE      ADC0LTL
      000000B8H.6 SFRSYM    DATA     BIT       IP_PSPI0
      000000D6H   SFRSYM    DATA     BYTE      IREF0CN
      000000F4H   SFRSYM    DATA     BYTE      SMB0ADR
      00000088H.4 SFRSYM    DATA     BIT       TCON_TR0
      000000ABH   SFRSYM    DATA     BYTE      CS0MX
      00000088H.6 SFRSYM    DATA     BIT       TCON_TR1
      000000C2H   SFRSYM    DATA     BYTE      SMB0DAT
      00000099H   SFRSYM    DATA     BYTE      P0DRV
      000000DDH   SFRSYM    DATA     BYTE      CS0SS
      000000C0H.5 SFRSYM    DATA     BIT       SMB0CN_STA
      000000CDH   SFRSYM    DATA     BYTE      TMR2H
      000000A1H   SFRSYM    DATA     BYTE      SPI0CFG
      0000009BH   SFRSYM    DATA     BYTE      P1DRV
      00000095H   SFRSYM    DATA     BYTE      TMR3H
      0000009DH   SFRSYM    DATA     BYTE      P2DRV
      0000009AH   SFRSYM    DATA     BYTE      CRC0CNT
      0000008EH   SFRSYM    DATA     BYTE      CKCON
      000000C8H.2 SFRSYM    DATA     BIT       TMR2CN_TR2
      000000CCH   SFRSYM    DATA     BYTE      TMR2L
      000000ACH   SFRSYM    DATA     BYTE      RTC0ADR
      00000094H   SFRSYM    DATA     BYTE      TMR3L
      000000BBH   SFRSYM    DATA     BYTE      ADC0PWR
      000000D8H   SFRSYM    DATA     BIT       PCA0CN_CCF0
      000000A8H.7 SFRSYM    DATA     BIT       IE_EA
      000000ADH   SFRSYM    DATA     BYTE      RTC0DAT
      000000D8H.1 SFRSYM    DATA     BIT       PCA0CN_CCF1
      000000B6H   SFRSYM    DATA     BYTE      FLSCL
      000000D8H.2 SFRSYM    DATA     BIT       PCA0CN_CCF2
      000000D0H.7 SFRSYM    DATA     BIT       PSW_CY
      000000B0H   SFRSYM    DATA     BIT       CS0CN_CSCMPF
      000000A3H   SFRSYM    DATA     BYTE      SPI0DAT
      000000BDH   SFRSYM    DATA     WORD      ADC0
      0000008EH   SFRSYM    DATA     BYTE      TOFFH
LX51 LINKER/LOCATER V4.66.30.0                                                        05/12/2018  01:06:07  PAGE 27


      000000C0H.3 SFRSYM    DATA     BIT       SMB0CN_ACKRQ
      000000D0H   SFRSYM    DATA     BYTE      PSW
      000000DFH   SFRSYM    DATA     BYTE      PCA0PWM
      000000E2H   SFRSYM    DATA     BYTE      REVID
      000000C0H.4 SFRSYM    DATA     BIT       SMB0CN_STO
      0000008DH   SFRSYM    DATA     BYTE      TOFFL
      000000B7H   SFRSYM    DATA     BYTE      FLKEY
      000000BAH   SFRSYM    DATA     BYTE      ADC0AC

      010011EFH   BLOCK     CODE     ---       LVL=0
      010011EFH   LINE      CODE     ---       #19
      010011EFH   LINE      CODE     ---       #21
      010011F2H   LINE      CODE     ---       #22
      010011F5H   LINE      CODE     ---       #23
      010011F8H   LINE      CODE     ---       #26
      010011FBH   LINE      CODE     ---       #28
      010011FEH   LINE      CODE     ---       #29
      ---         BLOCKEND  ---      ---       LVL=0

      01000024H   BLOCK     CODE     ---       LVL=0
      01000024H   LINE      CODE     ---       #38
      01000024H   LINE      CODE     ---       #42
      01000027H   LINE      CODE     ---       #43
      0100002AH   LINE      CODE     ---       #49
      ---         BLOCKEND  ---      ---       LVL=0

      01001273H   BLOCK     CODE     ---       LVL=0
      01001273H   LINE      CODE     ---       #54
      01001273H   LINE      CODE     ---       #60
      01001276H   LINE      CODE     ---       #64
      ---         BLOCKEND  ---      ---       LVL=0

      01001277H   BLOCK     CODE     ---       LVL=0
      01001277H   LINE      CODE     ---       #69
      01001277H   LINE      CODE     ---       #78
      0100127AH   LINE      CODE     ---       #82
      ---         BLOCKEND  ---      ---       LVL=0

      0100127BH   BLOCK     CODE     ---       LVL=0
      0100127BH   LINE      CODE     ---       #87
      0100127BH   LINE      CODE     ---       #95
      0100127EH   LINE      CODE     ---       #99
      ---         BLOCKEND  ---      ---       LVL=0

      01001256H   BLOCK     CODE     ---       LVL=0
      01001256H   LINE      CODE     ---       #104
      01001256H   LINE      CODE     ---       #107
      01001259H   LINE      CODE     ---       #108
      0100125CH   LINE      CODE     ---       #129
      ---         BLOCKEND  ---      ---       LVL=0

      0100125DH   BLOCK     CODE     ---       LVL=0
      0100125DH   LINE      CODE     ---       #134
      0100125DH   LINE      CODE     ---       #142
      01001260H   LINE      CODE     ---       #158
      01001263H   LINE      CODE     ---       #166
      ---         BLOCKEND  ---      ---       LVL=0

      0100124BH   BLOCK     CODE     ---       LVL=0
      0100124BH   BLOCK     CODE     NEAR LAB  LVL=1
      00000007H   SYMBOL    DATA     BYTE      TCON_save
      ---         BLOCKEND  ---      ---       LVL=1
LX51 LINKER/LOCATER V4.66.30.0                                                        05/12/2018  01:06:07  PAGE 28


      0100124BH   LINE      CODE     ---       #171
      0100124BH   LINE      CODE     ---       #174
      0100124DH   LINE      CODE     ---       #176
      01001250H   LINE      CODE     ---       #193
      01001253H   LINE      CODE     ---       #199
      01001255H   LINE      CODE     ---       #204
      ---         BLOCKEND  ---      ---       LVL=0
      00000007H   SYMBOL    DATA     BYTE      TMR3CN_TR3_save
      00000004H   SYMBOL    DATA     WORD      delayCounter
      00000007H   SYMBOL    DATA     BYTE      CLKSEL_save

      0100123EH   BLOCK     CODE     ---       LVL=0
      0100123EH   LINE      CODE     ---       #440
      0100123EH   LINE      CODE     ---       #458
      01001241H   LINE      CODE     ---       #460
      01001244H   LINE      CODE     ---       #469
      01001247H   LINE      CODE     ---       #470
      0100124AH   LINE      CODE     ---       #474
      ---         BLOCKEND  ---      ---       LVL=0

      0100127FH   BLOCK     CODE     ---       LVL=0
      0100127FH   LINE      CODE     ---       #479
      0100127FH   LINE      CODE     ---       #494
      01001282H   LINE      CODE     ---       #505
      ---         BLOCKEND  ---      ---       LVL=0

      01001264H   BLOCK     CODE     ---       LVL=0
      01001264H   LINE      CODE     ---       #510
      01001264H   LINE      CODE     ---       #528
      01001267H   LINE      CODE     ---       #553
      0100126AH   LINE      CODE     ---       #567
      ---         BLOCKEND  ---      ---       LVL=0

      01001283H   BLOCK     CODE     ---       LVL=0
      01001283H   LINE      CODE     ---       #568
      01001283H   LINE      CODE     ---       #573
      01001286H   LINE      CODE     ---       #577
      ---         BLOCKEND  ---      ---       LVL=0
      00000007H   SYMBOL    DATA     BYTE      TCON_save

      010011ACH   BLOCK     CODE     ---       LVL=0
      010011ACH   BLOCK     CODE     NEAR LAB  LVL=1
      00000007H   SYMBOL    DATA     BYTE      TMR2CN_TR2_save
      ---         BLOCKEND  ---      ---       LVL=1
      010011ACH   LINE      CODE     ---       #615
      010011ACH   LINE      CODE     ---       #616
      010011B0H   LINE      CODE     ---       #618
      010011B3H   LINE      CODE     ---       #628
      010011B6H   LINE      CODE     ---       #635
      010011B9H   LINE      CODE     ---       #642
      010011BCH   LINE      CODE     ---       #649
      010011BFH   LINE      CODE     ---       #658
      010011C2H   LINE      CODE     ---       #663
      010011C4H   LINE      CODE     ---       #668
      ---         BLOCKEND  ---      ---       LVL=0

      01001201H   BLOCK     CODE     ---       LVL=0
      01001201H   LINE      CODE     ---       #674
      01001201H   LINE      CODE     ---       #676
      01001204H   LINE      CODE     ---       #677
      01001207H   LINE      CODE     ---       #678
      0100120AH   LINE      CODE     ---       #679
LX51 LINKER/LOCATER V4.66.30.0                                                        05/12/2018  01:06:07  PAGE 29


      0100120DH   LINE      CODE     ---       #681
      01001210H   LINE      CODE     ---       #682
      ---         BLOCKEND  ---      ---       LVL=0

      ---         MODULE    ---      ---       INTERRUPTS
      00000008H   PUBLIC    DATA     BYTE      ADDR_SEND
      01000EFFH   PUBLIC    CODE     ---       SMBUS0_ISR
      000000A2H   SFRSYM    DATA     BYTE      SPI0CKR
      00000080H   SFRSYM    DATA     BYTE      P0
      000000D0H.2 SFRSYM    DATA     BIT       PSW_OV
      000000D8H.7 SFRSYM    DATA     BIT       PCA0CN_CF
      00000090H   SFRSYM    DATA     BYTE      P1
      000000F8H.4 SFRSYM    DATA     BIT       SPI0CN_RXOVRN
      000000A0H   SFRSYM    DATA     BYTE      P2
      00000097H   SFRSYM    DATA     BYTE      ADC0CF
      000000C8H   SFRSYM    DATA     BIT       TMR2CN_T2XCLK0
      000000C8H.1 SFRSYM    DATA     BIT       TMR2CN_T2XCLK1
      000000E8H.7 SFRSYM    DATA     BIT       ADC0CN_ADEN
      000000F9H   SFRSYM    DATA     WORD      PCA0
      000000AEH   SFRSYM    DATA     BYTE      RTC0KEY
      000000E6H   SFRSYM    DATA     BYTE      EIE1
      000000E7H   SFRSYM    DATA     BYTE      EIE2
      0000008FH   SFRSYM    DATA     BYTE      PSCTL
      000000E4H   SFRSYM    DATA     BYTE      IT01CF
      000000E3H   SFRSYM    DATA     BYTE      DERIVID
      000000AFH   SFRSYM    DATA     BYTE      CS0MD1
      000000A7H   SFRSYM    DATA     BYTE      SFRPAGE
      000000F3H   SFRSYM    DATA     BYTE      CS0MD2
      000000E8H   SFRSYM    DATA     BYTE      ADC0CN
      000000A4H   SFRSYM    DATA     BYTE      P0MDOUT
      000000F3H   SFRSYM    DATA     BYTE      CS0MD3
      000000D8H.6 SFRSYM    DATA     BIT       PCA0CN_CR
      000000A5H   SFRSYM    DATA     BYTE      P1MDOUT
      000000CBH   SFRSYM    DATA     BYTE      TMR2RLH
      000000A6H   SFRSYM    DATA     BYTE      P2MDOUT
      000000A8H   SFRSYM    DATA     BYTE      IE
      00000093H   SFRSYM    DATA     BYTE      TMR3RLH
      000000F6H   SFRSYM    DATA     BYTE      EIP1
      000000F8H   SFRSYM    DATA     BIT       SPI0CN_SPIEN
      000000F7H   SFRSYM    DATA     BYTE      EIP2
      00000098H.2 SFRSYM    DATA     BIT       SCON0_RB8
      000000CAH   SFRSYM    DATA     BYTE      TMR2RLL
      000000FCH   SFRSYM    DATA     BYTE      PCA0CPH0
      00000092H   SFRSYM    DATA     BYTE      TMR3RLL
      000000EAH   SFRSYM    DATA     BYTE      PCA0CPH1
      00000098H.3 SFRSYM    DATA     BIT       SCON0_TB8
      000000F0H   SFRSYM    DATA     BIT       B_B0
      00000082H   SFRSYM    DATA     WORD      DP
      000000ECH   SFRSYM    DATA     BYTE      PCA0CPH2
      00000090H.3 SFRSYM    DATA     BIT       YELLOW_LED
      000000B0H.4 SFRSYM    DATA     BIT       CS0CN_CSBUSY
      000000F0H.1 SFRSYM    DATA     BIT       B_B1
      000000E8H.6 SFRSYM    DATA     BIT       ADC0CN_ADBMEN
      000000C3H   SFRSYM    DATA     WORD      ADC0GT
      000000F0H.2 SFRSYM    DATA     BIT       B_B2
      000000FBH   SFRSYM    DATA     BYTE      PCA0CPL0
      000000F0H.3 SFRSYM    DATA     BIT       B_B3
      000000D9H   SFRSYM    DATA     BYTE      PCA0MD
      000000DAH   SFRSYM    DATA     BYTE      PCA0CPM0
      000000E9H   SFRSYM    DATA     BYTE      PCA0CPL1
      000000D8H   SFRSYM    DATA     BYTE      PCA0CN
      000000F0H.4 SFRSYM    DATA     BIT       B_B4
LX51 LINKER/LOCATER V4.66.30.0                                                        05/12/2018  01:06:07  PAGE 30


      000000DBH   SFRSYM    DATA     BYTE      PCA0CPM1
      000000EBH   SFRSYM    DATA     BYTE      PCA0CPL2
      000000F0H.5 SFRSYM    DATA     BIT       B_B5
      000000DCH   SFRSYM    DATA     BYTE      PCA0CPM2
      000000B8H   SFRSYM    DATA     BYTE      IP
      000000BCH   SFRSYM    DATA     BYTE      ADC0TK
      000000F0H.6 SFRSYM    DATA     BIT       B_B6
      000000C5H   SFRSYM    DATA     WORD      ADC0LT
      00000098H.5 SFRSYM    DATA     BIT       SCON0_MCE
      000000F0H.7 SFRSYM    DATA     BIT       B_B7
      00000084H   SFRSYM    DATA     BYTE      CRC0CN
      000000E1H   SFRSYM    DATA     BYTE      XBR0
      000000C1H   SFRSYM    DATA     BYTE      SMB0CF
      000000E2H   SFRSYM    DATA     BYTE      XBR1
      000000D2H   SFRSYM    DATA     BYTE      CS0SCAN0
      000000E3H   SFRSYM    DATA     BYTE      XBR2
      000000D3H   SFRSYM    DATA     BYTE      CS0SCAN1
      00000096H   SFRSYM    DATA     BYTE      ADC0MX
      000000C0H.2 SFRSYM    DATA     BIT       SMB0CN_ARBLOST
      000000E0H   SFRSYM    DATA     BIT       ACC_ACC0
      000000D1H   SFRSYM    DATA     BYTE      REF0CN
      000000F8H.1 SFRSYM    DATA     BIT       SPI0CN_TXBMT
      000000E0H.1 SFRSYM    DATA     BIT       ACC_ACC1
      000000C9H   SFRSYM    DATA     BYTE      REG0CN
      00000085H   SFRSYM    DATA     BYTE      CRC0IN
      000000C0H   SFRSYM    DATA     BIT       SMB0CN_SI
      000000E0H.2 SFRSYM    DATA     BIT       ACC_ACC2
      000000E0H.3 SFRSYM    DATA     BIT       ACC_ACC3
      00000081H   SFRSYM    DATA     BYTE      SP
      000000E0H.4 SFRSYM    DATA     BIT       ACC_ACC4
      000000E0H.5 SFRSYM    DATA     BIT       ACC_ACC5
      000000C0H   SFRSYM    DATA     BYTE      SMB0CN
      000000E0H.6 SFRSYM    DATA     BIT       ACC_ACC6
      000000CCH   SFRSYM    DATA     WORD      TMR2
      000000E0H.7 SFRSYM    DATA     BIT       ACC_ACC7
      00000094H   SFRSYM    DATA     WORD      TMR3
      000000FFH   SFRSYM    DATA     BYTE      VDM0CN
      000000F1H   SFRSYM    DATA     BYTE      P0MDIN
      0000009DH   SFRSYM    DATA     BYTE      CPT0MD
      0000009BH   SFRSYM    DATA     BYTE      CPT0CN
      00000098H.4 SFRSYM    DATA     BIT       SCON0_REN
      000000F2H   SFRSYM    DATA     BYTE      P1MDIN
      000000FEH   SFRSYM    DATA     BYTE      CS0THH
      000000B5H   SFRSYM    DATA     BYTE      PMU0CF
      000000C8H.7 SFRSYM    DATA     BIT       TMR2CN_TF2H
      000000C8H.3 SFRSYM    DATA     BIT       TMR2CN_T2SPLIT
      000000C7H   SFRSYM    DATA     BYTE      P0MASK
      000000F8H   SFRSYM    DATA     BYTE      SPI0CN
      000000BFH   SFRSYM    DATA     BYTE      P1MASK
      000000FDH   SFRSYM    DATA     BYTE      CS0THL
      000000D0H.3 SFRSYM    DATA     BIT       PSW_RS0
      00000087H   SFRSYM    DATA     BYTE      PCON
      000000C8H.6 SFRSYM    DATA     BIT       TMR2CN_TF2L
      000000D0H.4 SFRSYM    DATA     BIT       PSW_RS1
      000000E8H   SFRSYM    DATA     BIT       ADC0CN_ADCM0
      000000B0H.1 SFRSYM    DATA     BIT       CS0CN_CSPME
      000000E8H.1 SFRSYM    DATA     BIT       ADC0CN_ADCM1
      000000E8H.2 SFRSYM    DATA     BIT       ADC0CN_ADCM2
      000000E8H.3 SFRSYM    DATA     BIT       ADC0CN_ADWINT
      00000089H   SFRSYM    DATA     BYTE      TMOD
      00000088H   SFRSYM    DATA     BYTE      TCON
      000000B5H   SFRSYM    DATA     BYTE      PMU0MD
LX51 LINKER/LOCATER V4.66.30.0                                                        05/12/2018  01:06:07  PAGE 31


      000000E8H.4 SFRSYM    DATA     BIT       ADC0CN_ADBUSY
      000000CEH   SFRSYM    DATA     BYTE      PMU0FL
      0000009CH   SFRSYM    DATA     BYTE      CRC0FLIP
      000000F8H.5 SFRSYM    DATA     BIT       SPI0CN_MODF
      000000D0H   SFRSYM    DATA     BIT       PSW_PARITY
      000000A8H.4 SFRSYM    DATA     BIT       IE_ES0
      000000A8H.1 SFRSYM    DATA     BIT       IE_ET0
      000000B0H.6 SFRSYM    DATA     BIT       CS0CN_CSEOS
      000000C8H   SFRSYM    DATA     BYTE      TMR2CN
      000000A8H.3 SFRSYM    DATA     BIT       IE_ET1
      00000091H   SFRSYM    DATA     BYTE      TMR3CN
      000000D4H   SFRSYM    DATA     BYTE      P0SKIP
      000000A8H.5 SFRSYM    DATA     BIT       IE_ET2
      000000D5H   SFRSYM    DATA     BYTE      P1SKIP
      000000A8H   SFRSYM    DATA     BIT       IE_EX0
      000000B0H.5 SFRSYM    DATA     BIT       CS0CN_CSINT
      000000E5H   SFRSYM    DATA     BYTE      FLWR
      000000C8H.4 SFRSYM    DATA     BIT       TMR2CN_TF2CEN
      000000A8H.2 SFRSYM    DATA     BIT       IE_EX1
      0000009FH   SFRSYM    DATA     BYTE      CPT0MX
      00000098H.7 SFRSYM    DATA     BIT       SCON0_SMODE
      000000B3H   SFRSYM    DATA     BYTE      OSCICL
      000000A9H   SFRSYM    DATA     BYTE      CLKSEL
      000000B2H   SFRSYM    DATA     BYTE      OSCICN
      000000F0H   SFRSYM    DATA     BYTE      B
      000000BEH   SFRSYM    DATA     BYTE      ADC0H
      00000090H.5 SFRSYM    DATA     BIT       CO2_ON
      000000F8H.7 SFRSYM    DATA     BIT       SPI0CN_SPIF
      0000009EH   SFRSYM    DATA     BYTE      CRC0AUTO
      000000B0H.3 SFRSYM    DATA     BIT       CS0CN_CSCMPEN
      000000CAH   SFRSYM    DATA     WORD      TMR2RL
      000000BDH   SFRSYM    DATA     BYTE      ADC0L
      000000C8H.5 SFRSYM    DATA     BIT       TMR2CN_TF2LEN
      000000F8H.6 SFRSYM    DATA     BIT       SPI0CN_WCOL
      00000092H   SFRSYM    DATA     WORD      TMR3RL
      000000F8H.2 SFRSYM    DATA     BIT       SPI0CN_NSSMD0
      000000E0H   SFRSYM    DATA     BYTE      ACC
      000000F8H.3 SFRSYM    DATA     BIT       SPI0CN_NSSMD1
      000000FBH   SFRSYM    DATA     WORD      PCA0CP0
      000000E9H   SFRSYM    DATA     WORD      PCA0CP1
      000000EBH   SFRSYM    DATA     WORD      PCA0CP2
      0000008CH   SFRSYM    DATA     BYTE      TH0
      000000B8H.4 SFRSYM    DATA     BIT       IP_PS0
      0000008DH   SFRSYM    DATA     BYTE      TH1
      000000FAH   SFRSYM    DATA     BYTE      PCA0H
      000000B8H.1 SFRSYM    DATA     BIT       IP_PT0
      000000B8H.3 SFRSYM    DATA     BIT       IP_PT1
      000000B8H.5 SFRSYM    DATA     BIT       IP_PT2
      0000008AH   SFRSYM    DATA     BYTE      TL0
      000000B1H   SFRSYM    DATA     BYTE      OSCXCN
      000000AAH   SFRSYM    DATA     BYTE      CS0CF
      000000D0H.5 SFRSYM    DATA     BIT       PSW_F0
      000000A8H.6 SFRSYM    DATA     BIT       IE_ESPI0
      0000008BH   SFRSYM    DATA     BYTE      TL1
      000000F9H   SFRSYM    DATA     BYTE      PCA0L
      000000D0H.1 SFRSYM    DATA     BIT       PSW_F1
      00000080H   SFRSYM    DATA     BIT       P0_B0
      000000B8H   SFRSYM    DATA     BIT       IP_PX0
      00000090H   SFRSYM    DATA     BIT       P1_B0
      00000080H.1 SFRSYM    DATA     BIT       P0_B1
      000000B8H.2 SFRSYM    DATA     BIT       IP_PX1
      000000EEH   SFRSYM    DATA     BYTE      CS0DH
LX51 LINKER/LOCATER V4.66.30.0                                                        05/12/2018  01:06:07  PAGE 32


      00000088H.1 SFRSYM    DATA     BIT       TCON_IE0
      000000C0H.7 SFRSYM    DATA     BIT       SMB0CN_MASTER
      00000090H.1 SFRSYM    DATA     BIT       P1_B1
      00000080H.2 SFRSYM    DATA     BIT       P0_B2
      00000088H.3 SFRSYM    DATA     BIT       TCON_IE1
      000000C0H.1 SFRSYM    DATA     BIT       SMB0CN_ACK
      00000090H.2 SFRSYM    DATA     BIT       P1_B2
      00000080H.3 SFRSYM    DATA     BIT       P0_B3
      00000090H.3 SFRSYM    DATA     BIT       P1_B3
      00000080H.4 SFRSYM    DATA     BIT       P0_B4
      00000090H.4 SFRSYM    DATA     BIT       P1_B4
      00000080H.5 SFRSYM    DATA     BIT       P0_B5
      000000EDH   SFRSYM    DATA     BYTE      CS0DL
      00000090H.5 SFRSYM    DATA     BIT       P1_B5
      00000080H.6 SFRSYM    DATA     BIT       P0_B6
      000000B0H   SFRSYM    DATA     BYTE      CS0CN
      000000C0H.6 SFRSYM    DATA     BIT       SMB0CN_TXMODE
      00000090H.6 SFRSYM    DATA     BIT       P1_B6
      00000080H.7 SFRSYM    DATA     BIT       P0_B7
      00000090H.7 SFRSYM    DATA     BIT       P1_B7
      000000A0H.7 SFRSYM    DATA     BIT       P2_B7
      00000083H   SFRSYM    DATA     BYTE      DPH
      000000E8H.5 SFRSYM    DATA     BIT       ADC0CN_ADINT
      000000C4H   SFRSYM    DATA     BYTE      ADC0GTH
      000000D0H.6 SFRSYM    DATA     BIT       PSW_AC
      000000DEH   SFRSYM    DATA     BYTE      CS0SE
      00000088H.5 SFRSYM    DATA     BIT       TCON_TF0
      00000098H   SFRSYM    DATA     BIT       SCON0_RI
      00000082H   SFRSYM    DATA     BYTE      DPL
      00000088H.7 SFRSYM    DATA     BIT       TCON_TF1
      00000099H   SFRSYM    DATA     BYTE      SBUF0
      000000B9H   SFRSYM    DATA     BYTE      IREF0CF
      000000C3H   SFRSYM    DATA     BYTE      ADC0GTL
      00000098H.1 SFRSYM    DATA     BIT       SCON0_TI
      000000C6H   SFRSYM    DATA     BYTE      ADC0LTH
      00000088H   SFRSYM    DATA     BIT       TCON_IT0
      000000B0H.7 SFRSYM    DATA     BIT       CS0CN_CSEN
      000000EFH   SFRSYM    DATA     BYTE      RSTSRC
      000000D7H   SFRSYM    DATA     BYTE      P0MAT
      00000086H   SFRSYM    DATA     BYTE      CRC0DAT
      00000088H.2 SFRSYM    DATA     BIT       TCON_IT1
      00000098H   SFRSYM    DATA     BYTE      SCON0
      000000CFH   SFRSYM    DATA     BYTE      P1MAT
      000000DEH   SFRSYM    DATA     BYTE      CS0PM
      000000F5H   SFRSYM    DATA     BYTE      SMB0ADM
      000000C5H   SFRSYM    DATA     BYTE      ADC0LTL
      000000B8H.6 SFRSYM    DATA     BIT       IP_PSPI0
      000000D6H   SFRSYM    DATA     BYTE      IREF0CN
      000000F4H   SFRSYM    DATA     BYTE      SMB0ADR
      00000088H.4 SFRSYM    DATA     BIT       TCON_TR0
      000000ABH   SFRSYM    DATA     BYTE      CS0MX
      00000088H.6 SFRSYM    DATA     BIT       TCON_TR1
      000000C2H   SFRSYM    DATA     BYTE      SMB0DAT
      00000099H   SFRSYM    DATA     BYTE      P0DRV
      000000DDH   SFRSYM    DATA     BYTE      CS0SS
      000000C0H.5 SFRSYM    DATA     BIT       SMB0CN_STA
      000000CDH   SFRSYM    DATA     BYTE      TMR2H
      000000A1H   SFRSYM    DATA     BYTE      SPI0CFG
      0000009BH   SFRSYM    DATA     BYTE      P1DRV
      00000095H   SFRSYM    DATA     BYTE      TMR3H
      0000009DH   SFRSYM    DATA     BYTE      P2DRV
      0000009AH   SFRSYM    DATA     BYTE      CRC0CNT
LX51 LINKER/LOCATER V4.66.30.0                                                        05/12/2018  01:06:07  PAGE 33


      0000008EH   SFRSYM    DATA     BYTE      CKCON
      000000C8H.2 SFRSYM    DATA     BIT       TMR2CN_TR2
      000000CCH   SFRSYM    DATA     BYTE      TMR2L
      000000ACH   SFRSYM    DATA     BYTE      RTC0ADR
      00000094H   SFRSYM    DATA     BYTE      TMR3L
      000000BBH   SFRSYM    DATA     BYTE      ADC0PWR
      000000D8H   SFRSYM    DATA     BIT       PCA0CN_CCF0
      000000A8H.7 SFRSYM    DATA     BIT       IE_EA
      000000ADH   SFRSYM    DATA     BYTE      RTC0DAT
      000000D8H.1 SFRSYM    DATA     BIT       PCA0CN_CCF1
      000000B6H   SFRSYM    DATA     BYTE      FLSCL
      000000D8H.2 SFRSYM    DATA     BIT       PCA0CN_CCF2
      000000D0H.7 SFRSYM    DATA     BIT       PSW_CY
      000000B0H   SFRSYM    DATA     BIT       CS0CN_CSCMPF
      000000A3H   SFRSYM    DATA     BYTE      SPI0DAT
      000000BDH   SFRSYM    DATA     WORD      ADC0
      0000008EH   SFRSYM    DATA     BYTE      TOFFH
      000000C0H.3 SFRSYM    DATA     BIT       SMB0CN_ACKRQ
      000000D0H   SFRSYM    DATA     BYTE      PSW
      000000DFH   SFRSYM    DATA     BYTE      PCA0PWM
      000000E2H   SFRSYM    DATA     BYTE      REVID
      000000C0H.4 SFRSYM    DATA     BIT       SMB0CN_STO
      0000008DH   SFRSYM    DATA     BYTE      TOFFL
      000000B7H   SFRSYM    DATA     BYTE      FLKEY
      000000BAH   SFRSYM    DATA     BYTE      ADC0AC

      01000EFFH   BLOCK     CODE     ---       LVL=0
      01000F0AH   BLOCK     CODE     NEAR LAB  LVL=1
      00000020H.4 SYMBOL    BIT      BIT       FAIL
      ---         BLOCKEND  ---      ---       LVL=1
      01000EFFH   LINE      CODE     ---       #47
      01000F0AH   LINE      CODE     ---       #49
      01000F0CH   LINE      CODE     ---       #54
      01000F12H   LINE      CODE     ---       #55
      01000F12H   LINE      CODE     ---       #57
      01000F28H   LINE      CODE     ---       #58
      01000F28H   LINE      CODE     ---       #60
      01000F28H   LINE      CODE     ---       #62
      01000F2BH   LINE      CODE     ---       #63
      01000F2EH   LINE      CODE     ---       #65
      01000F34H   LINE      CODE     ---       #66
      01000F36H   LINE      CODE     ---       #67
      01000F39H   LINE      CODE     ---       #68
      01000F3CH   LINE      CODE     ---       #70
      01000F3FH   LINE      CODE     ---       #73
      01000F3FH   LINE      CODE     ---       #74
      01000F42H   LINE      CODE     ---       #75
      01000F42H   LINE      CODE     ---       #76
      01000F46H   LINE      CODE     ---       #77
      01000F46H   LINE      CODE     ---       #82
      01000F49H   LINE      CODE     ---       #83
      01000F49H   LINE      CODE     ---       #84
      01000F4FH   LINE      CODE     ---       #85
      01000F4FH   LINE      CODE     ---       #86
      01000F56H   LINE      CODE     ---       #87
      01000F60H   LINE      CODE     ---       #88
      01000F62H   LINE      CODE     ---       #89
      01000F65H   LINE      CODE     ---       #90
      01000F68H   LINE      CODE     ---       #91
      01000F68H   LINE      CODE     ---       #92
      01000F68H   LINE      CODE     ---       #93
      01000F6AH   LINE      CODE     ---       #94
LX51 LINKER/LOCATER V4.66.30.0                                                        05/12/2018  01:06:07  PAGE 34


      01000F6DH   LINE      CODE     ---       #95
      01000F70H   LINE      CODE     ---       #96
      01000F70H   LINE      CODE     ---       #98
      01000F75H   LINE      CODE     ---       #99
      01000F78H   LINE      CODE     ---       #100
      01000F78H   LINE      CODE     ---       #101
      01000F7DH   LINE      CODE     ---       #102
      01000F80H   LINE      CODE     ---       #103
      01000F80H   LINE      CODE     ---       #105
      01000F80H   LINE      CODE     ---       #106
      01000F85H   LINE      CODE     ---       #107
      01000F88H   LINE      CODE     ---       #108
      01000F8AH   LINE      CODE     ---       #109
      01000F8FH   LINE      CODE     ---       #110
      01000F92H   LINE      CODE     ---       #113
      01000F92H   LINE      CODE     ---       #114
      01000F96H   LINE      CODE     ---       #115
      01000F98H   LINE      CODE     ---       #117
      01000F9AH   LINE      CODE     ---       #119
      01000F9AH   LINE      CODE     ---       #120
      01000F9AH   LINE      CODE     ---       #124
      01000F9AH   LINE      CODE     ---       #126
      01000F9AH   LINE      CODE     ---       #128
      01000FA0H   LINE      CODE     ---       #129
      01000FA0H   LINE      CODE     ---       #130
      01000FA0H   LINE      CODE     ---       #131
      01000FA0H   LINE      CODE     ---       #132
      01000FA0H   LINE      CODE     ---       #135
      01000FA0H   LINE      CODE     ---       #136
      01000FA2H   LINE      CODE     ---       #138
      01000FA2H   LINE      CODE     ---       #139
      01000FA4H   LINE      CODE     ---       #140
      01000FA6H   LINE      CODE     ---       #141
      01000FA6H   LINE      CODE     ---       #142
      01000FA8H   LINE      CODE     ---       #145
      01000FA8H   LINE      CODE     ---       #146
      01000FABH   LINE      CODE     ---       #147
      01000FABH   LINE      CODE     ---       #148
      01000FB2H   LINE      CODE     ---       #149
      01000FB2H   LINE      CODE     ---       #150
      01000FB7H   LINE      CODE     ---       #151
      01000FBFH   LINE      CODE     ---       #152
      01000FC6H   LINE      CODE     ---       #153
      01000FCBH   LINE      CODE     ---       #154
      01000FCBH   LINE      CODE     ---       #156
      01000FCBH   LINE      CODE     ---       #157
      01000FCDH   LINE      CODE     ---       #158
      01000FCFH   LINE      CODE     ---       #159
      01000FD1H   LINE      CODE     ---       #161
      01000FD3H   LINE      CODE     ---       #162
      01000FD3H   LINE      CODE     ---       #163
      01000FD3H   LINE      CODE     ---       #164
      01000FD3H   LINE      CODE     ---       #166
      01000FD5H   LINE      CODE     ---       #167
      01000FD8H   LINE      CODE     ---       #168
      01000FDAH   LINE      CODE     ---       #169
      01000FDCH   LINE      CODE     ---       #170
      01000FDEH   LINE      CODE     ---       #174
      01000FDEH   LINE      CODE     ---       #175
      01000FE0H   LINE      CODE     ---       #177
      01000FE0H   LINE      CODE     ---       #178
      01000FE2H   LINE      CODE     ---       #180
LX51 LINKER/LOCATER V4.66.30.0                                                        05/12/2018  01:06:07  PAGE 35


      01000FE4H   LINE      CODE     ---       #182
      01000FE4H   LINE      CODE     ---       #183
      01000FE4H   LINE      CODE     ---       #185
      01000FE4H   LINE      CODE     ---       #187
      01000FE6H   LINE      CODE     ---       #188
      01000FE6H   LINE      CODE     ---       #190
      01000FE9H   LINE      CODE     ---       #191
      01000FE9H   LINE      CODE     ---       #192
      01000FECH   LINE      CODE     ---       #193
      01000FEFH   LINE      CODE     ---       #194
      01000FF1H   LINE      CODE     ---       #195
      01000FF3H   LINE      CODE     ---       #196
      01000FF5H   LINE      CODE     ---       #198
      01000FF7H   LINE      CODE     ---       #200
      01000FF9H   LINE      CODE     ---       #202
      01000FF9H   LINE      CODE     ---       #204
      01000FFBH   LINE      CODE     ---       #205
      ---         BLOCKEND  ---      ---       LVL=0

      ---         MODULE    ---      ---       ?C_STARTUP
      01000000H   PUBLIC    CODE     NEAR LAB  ?C_STARTUP
      000000E0H   SFRSYM    DATA     BYTE      ACC
      000000F0H   SFRSYM    DATA     BYTE      B
      00000083H   SFRSYM    DATA     BYTE      DPH
      00000082H   SFRSYM    DATA     BYTE      DPL
      000000A0H   SFRSYM    DATA     BYTE      PPAGE_SFR
      00000081H   SFRSYM    DATA     BYTE      SP
      00000000H   SYMBOL    NUMBER   ---       IBPSTACK
      00000100H   SYMBOL    NUMBER   ---       IBPSTACKTOP
      00000080H   SYMBOL    NUMBER   ---       IDATALEN
      0100100AH   SYMBOL    CODE     NEAR LAB  IDATALOOP
      00000000H   SYMBOL    NUMBER   ---       PBPSTACK
      00000100H   SYMBOL    NUMBER   ---       PBPSTACKTOP
      00000000H   SYMBOL    NUMBER   ---       PDATALEN
      00000000H   SYMBOL    NUMBER   ---       PDATASTART
      00000000H   SYMBOL    NUMBER   ---       PPAGE
      00000000H   SYMBOL    NUMBER   ---       PPAGEENABLE
      01001004H   SYMBOL    CODE     NEAR LAB  STARTUP1
      00000000H   SYMBOL    NUMBER   ---       XBPSTACK
      00010000H   SYMBOL    NUMBER   ---       XBPSTACKTOP
      00000000H   SYMBOL    NUMBER   ---       XDATALEN
      00000000H   SYMBOL    NUMBER   ---       XDATASTART

      01000000H   BLOCK     CODE     NEAR LAB  LVL=0
      01000000H   LINE      CODE     ---       #126
      ---         BLOCKEND  ---      ---       LVL=0

      01001004H   BLOCK     CODE     NEAR LAB  LVL=0
      01001004H   LINE      CODE     ---       #134
      01001007H   LINE      CODE     ---       #138
      01001009H   LINE      CODE     ---       #139
      0100100AH   LINE      CODE     ---       #140
      0100100BH   LINE      CODE     ---       #141
      0100100DH   LINE      CODE     ---       #190
      01001010H   LINE      CODE     ---       #201
      ---         BLOCKEND  ---      ---       LVL=0

      ---         MODULE    ---      ---       ?C?FPADD
      01000045H   PUBLIC    CODE     ---       ?C?FPADD
      01000041H   PUBLIC    CODE     ---       ?C?FPSUB

      ---         MODULE    ---      ---       ?C?FPMUL
LX51 LINKER/LOCATER V4.66.30.0                                                        05/12/2018  01:06:07  PAGE 36


      01000136H   PUBLIC    CODE     ---       ?C?FPMUL

      ---         MODULE    ---      ---       ?C?FPDIV
      0100023FH   PUBLIC    CODE     ---       ?C?FPDIV

      ---         MODULE    ---      ---       ?C?FCAST
      010002E6H   PUBLIC    CODE     ---       ?C?FCASTC
      010002E1H   PUBLIC    CODE     ---       ?C?FCASTI
      010002DCH   PUBLIC    CODE     ---       ?C?FCASTL

      ---         MODULE    ---      ---       ?C?CASTF
      0100031AH   PUBLIC    CODE     ---       ?C?CASTF

      ---         MODULE    ---      ---       ?C?FPGETOPN
      01000351H   PUBLIC    CODE     ---       ?C?FPGETOPN2
      01000386H   PUBLIC    CODE     ---       ?C?FPNANRESULT
      01000390H   PUBLIC    CODE     ---       ?C?FPOVERFLOW
      01000368H   PUBLIC    CODE     ---       ?C?FPRESULT
      0100037CH   PUBLIC    CODE     ---       ?C?FPRESULT2
      0100038DH   PUBLIC    CODE     ---       ?C?FPUNDERFLOW

      ---         MODULE    ---      ---       ?C_INIT
      0100104EH   PUBLIC    CODE     ---       ?C_START

      ---         MODULE    ---      ---       ?C?CLDPTR
      0100039BH   PUBLIC    CODE     ---       ?C?CLDPTR

      ---         MODULE    ---      ---       ?C?CSTPTR
      010003B4H   PUBLIC    CODE     ---       ?C?CSTPTR

      ---         MODULE    ---      ---       ?C?IMUL
      010003C6H   PUBLIC    CODE     ---       ?C?IMUL

      ---         MODULE    ---      ---       ?C?UIDIV
      010003D8H   PUBLIC    CODE     ---       ?C?UIDIV

      ---         MODULE    ---      ---       ?C?LMUL
      0100042DH   PUBLIC    CODE     ---       ?C?LMUL

      ---         MODULE    ---      ---       ?C?ULDIV
      010004B8H   PUBLIC    CODE     ---       ?C?ULDIV

      ---         MODULE    ---      ---       ?C?SLDIV
      01001147H   PUBLIC    CODE     ---       ?C?SLDIV

      ---         MODULE    ---      ---       ?C?LNEG
      0100054AH   PUBLIC    CODE     ---       ?C?LNEG

      ---         MODULE    ---      ---       ?C?SLCMP
      01000558H   PUBLIC    CODE     ---       ?C?SLCMP

      ---         MODULE    ---      ---       ?C?ULCMP
      0100056EH   PUBLIC    CODE     ---       ?C?ULCMP

      ---         MODULE    ---      ---       ?C?SLSHR
      0100057FH   PUBLIC    CODE     ---       ?C?SLSHR

      ---         MODULE    ---      ---       ?C?LSHL
      01000593H   PUBLIC    CODE     ---       ?C?LSHL

Program Size: data=103.5 xdata=1 const=0 code=4744
LX51 RUN COMPLETE.  0 WARNING(S),  0 ERROR(S)
